	.cpu arm7tdmi
	.arch armv4t
	.fpu softvfp
	.eabi_attribute 20, 1	@ Tag_ABI_FP_denormal
	.eabi_attribute 21, 1	@ Tag_ABI_FP_exceptions
	.eabi_attribute 23, 3	@ Tag_ABI_FP_number_model
	.eabi_attribute 24, 1	@ Tag_ABI_align8_needed
	.eabi_attribute 25, 1	@ Tag_ABI_align8_preserved
	.eabi_attribute 26, 1	@ Tag_ABI_enum_size
	.eabi_attribute 30, 2	@ Tag_ABI_optimization_goals
	.eabi_attribute 34, 0	@ Tag_CPU_unaligned_access
	.eabi_attribute 18, 4	@ Tag_ABI_PCS_wchar_t
	.file	"FE8.c"
@ GNU C17 (devkitARM release 63) version 13.2.0 (arm-none-eabi)
@	compiled by GNU C version 10.3.0, GMP version 6.2.1, MPFR version 4.1.0, MPC version 1.2.1, isl version isl-0.18-GMP

@ GGC heuristics: --param ggc-min-expand=100 --param ggc-min-heapsize=131072
@ options passed: -mcpu=arm7tdmi -mthumb -mthumb-interwork -mtune=arm7tdmi -mlong-calls -march=armv4t -O2
	.text
	.align	1
	.p2align 2,,3
	.global	LoopRandomRecruitmentProc
	.syntax unified
	.code	16
	.thumb_func
	.type	LoopRandomRecruitmentProc, %function
LoopRandomRecruitmentProc:
	@ Function supports interworking.
	@ args = 0, pretend = 0, frame = 0
	@ frame_needed = 0, uses_anonymous_args = 0
	@ link register save eliminated.
@ Patches/../C_code.c:200: }
	@ sp needed	@
	bx	lr
	.size	LoopRandomRecruitmentProc, .-LoopRandomRecruitmentProc
	.align	1
	.p2align 2,,3
	.global	EnableBG0Display
	.syntax unified
	.code	16
	.thumb_func
	.type	EnableBG0Display, %function
EnableBG0Display:
	@ Function supports interworking.
	@ args = 0, pretend = 0, frame = 0
	@ frame_needed = 0, uses_anonymous_args = 0
	@ link register save eliminated.
@ Patches/../C_code.c:8623:     gLCDControlBuffer.dispcnt.bg0_on = 1;
	movs	r1, #1	@ tmp119,
@ Patches/../C_code.c:8624: }
	@ sp needed	@
@ Patches/../C_code.c:8623:     gLCDControlBuffer.dispcnt.bg0_on = 1;
	ldr	r2, .L4	@ tmp114,
	ldrb	r3, [r2, #1]	@ gLCDControlBuffer.dispcnt.bg0_on, gLCDControlBuffer.dispcnt.bg0_on
	orrs	r3, r1	@ tmp121, tmp119
	strb	r3, [r2, #1]	@ tmp121, gLCDControlBuffer.dispcnt.bg0_on
@ Patches/../C_code.c:8624: }
	bx	lr
.L5:
	.align	2
.L4:
	.word	gLCDControlBuffer
	.size	EnableBG0Display, .-EnableBG0Display
	.align	1
	.p2align 2,,3
	.global	DrawFilterCharPage
	.syntax unified
	.code	16
	.thumb_func
	.type	DrawFilterCharPage, %function
DrawFilterCharPage:
	@ Function supports interworking.
	@ args = 0, pretend = 0, frame = 8
	@ frame_needed = 0, uses_anonymous_args = 0
	push	{r4, r5, r6, r7, lr}	@
	mov	r7, r10	@,
	mov	r5, r8	@,
	mov	lr, fp	@,
	mov	r6, r9	@,
	push	{r5, r6, r7, lr}	@
@ Patches/../C_code.c:1398:     for (int i = 0; i < NumberOfTags; ++i)
	movs	r5, #0	@ i,
	ldr	r3, [r0, #100]	@ _117, proc_56(D)->tags
	mov	r8, r3	@ _117, _117
	ldr	r3, .L20	@ ivtmp.942,
	mov	r10, r3	@ ivtmp.942, ivtmp.942
@ Patches/../C_code.c:1396:     u32 curTags = proc->tags;
	movs	r4, r3	@ ivtmp.953, ivtmp.942
	ldr	r3, .L20+4	@ tmp163,
	mov	r9, r3	@ tmp163, tmp163
@ Patches/../C_code.c:1408:             ClearText(&th[i]);
	ldr	r3, .L20+8	@ tmp164,
	mov	fp, r3	@ tmp164, tmp164
@ Patches/../C_code.c:1409:             Text_SetColor(&th[i], c);
	ldr	r3, .L20+12	@ tmp165,
@ Patches/../C_code.c:1391: {
	sub	sp, sp, #12	@,,
@ Patches/../C_code.c:1409:             Text_SetColor(&th[i], c);
	str	r3, [sp]	@ tmp165, %sfp
@ Patches/../C_code.c:1410:             Text_DrawString(&th[i], tags[i]);
	ldr	r3, .L20+16	@ tmp166,
	ldr	r7, .L20+20	@ ivtmp.955,
	str	r3, [sp, #4]	@ tmp166, %sfp
.L9:
@ Patches/../C_code.c:1400:         c = curTags & (1 << i);
	movs	r3, #1	@ tmp148,
@ Patches/../C_code.c:1400:         c = curTags & (1 << i);
	mov	r6, r8	@ c, _117
@ Patches/../C_code.c:1400:         c = curTags & (1 << i);
	lsls	r3, r3, r5	@ tmp147, tmp148, i
@ Patches/../C_code.c:1401:         if (c)
	mov	r2, r8	@ _117, _117
@ Patches/../C_code.c:1400:         c = curTags & (1 << i);
	ands	r6, r3	@ c, tmp147
@ Patches/../C_code.c:1401:         if (c)
	tst	r2, r3	@ _117, tmp147
	beq	.L7		@,
@ Patches/../C_code.c:1403:             c = gold;
	movs	r6, #3	@ c,
.L7:
@ Patches/../C_code.c:1406:         if (Text_GetColor(&th[i]) != c)
	movs	r0, r4	@, ivtmp.953
	bl	.L22		@
@ Patches/../C_code.c:1406:         if (Text_GetColor(&th[i]) != c)
	cmp	r0, r6	@ tmp168, c
	beq	.L8		@,
@ Patches/../C_code.c:1408:             ClearText(&th[i]);
	movs	r0, r4	@, ivtmp.953
	bl	.L23		@
@ Patches/../C_code.c:1409:             Text_SetColor(&th[i], c);
	movs	r1, r6	@, c
	movs	r0, r4	@, ivtmp.953
	ldr	r3, [sp]	@ tmp165, %sfp
	bl	.L24		@
@ Patches/../C_code.c:1410:             Text_DrawString(&th[i], tags[i]);
	movs	r0, r4	@, ivtmp.953
	ldr	r1, [r7]	@ MEM[(const char * *)_139], MEM[(const char * *)_139]
	ldr	r3, [sp, #4]	@ tmp166, %sfp
	bl	.L24		@
.L8:
@ Patches/../C_code.c:1398:     for (int i = 0; i < NumberOfTags; ++i)
	adds	r5, r5, #1	@ i,
@ Patches/../C_code.c:1398:     for (int i = 0; i < NumberOfTags; ++i)
	adds	r4, r4, #8	@ ivtmp.953,
	adds	r7, r7, #4	@ ivtmp.955,
	cmp	r5, #32	@ i,
	bne	.L9		@,
	movs	r3, #132	@ _130,
	rsbs	r3, r3, #0	@ _130, _130
	mov	r8, r3	@ _130, _130
	movs	r3, #128	@ tmp184,
	ldr	r4, .L20+24	@ ivtmp.944,
	lsls	r3, r3, #3	@ tmp184, tmp184,
	ldr	r5, .L20+28	@ tmp162,
	add	r8, r8, r4	@ _130, ivtmp.944
	adds	r6, r4, r3	@ _131, ivtmp.944, tmp184
.L10:
@ Patches/../C_code.c:1418:         PutText(&th[c], gBG0TilemapBuffer + TILEMAP_INDEX(x, y + (i * 2)));
	movs	r1, r4	@, ivtmp.944
	mov	r0, r10	@, ivtmp.942
	bl	.L25		@
@ Patches/../C_code.c:1416:     for (int i = 0; i < 8; ++i)
	movs	r3, #8	@ tmp185,
	mov	ip, r3	@ tmp185, tmp185
	adds	r4, r4, #128	@ ivtmp.944,
	add	r10, r10, ip	@ ivtmp.942, tmp185
	cmp	r4, r6	@ ivtmp.944, _131
	bne	.L10		@,
	ldr	r7, .L20+32	@ _121,
	ldr	r6, .L20+36	@ ivtmp.931,
	ldr	r4, .L20+40	@ ivtmp.933,
	add	r7, r7, r8	@ _121, _130
.L11:
@ Patches/../C_code.c:1424:         PutText(&th[c], gBG0TilemapBuffer + TILEMAP_INDEX(x, y + (i * 2)));
	movs	r1, r4	@, ivtmp.933
	movs	r0, r6	@, ivtmp.931
@ Patches/../C_code.c:1422:     for (int i = 0; i < 8; ++i)
	adds	r4, r4, #128	@ ivtmp.933,
@ Patches/../C_code.c:1424:         PutText(&th[c], gBG0TilemapBuffer + TILEMAP_INDEX(x, y + (i * 2)));
	bl	.L25		@
@ Patches/../C_code.c:1422:     for (int i = 0; i < 8; ++i)
	adds	r6, r6, #8	@ ivtmp.931,
	cmp	r4, r7	@ ivtmp.933, _121
	bne	.L11		@,
	movs	r7, #148	@ _45,
	ldr	r6, .L20+44	@ ivtmp.918,
	lsls	r7, r7, #3	@ _45, _45,
	ldr	r4, .L20+48	@ ivtmp.920,
	add	r7, r7, r8	@ _45, _130
.L12:
@ Patches/../C_code.c:1430:         PutText(&th[c], gBG0TilemapBuffer + TILEMAP_INDEX(x, y + (i * 2)));
	movs	r1, r4	@, ivtmp.920
	movs	r0, r6	@, ivtmp.918
@ Patches/../C_code.c:1428:     for (int i = 0; i < 8; ++i)
	adds	r4, r4, #128	@ ivtmp.920,
@ Patches/../C_code.c:1430:         PutText(&th[c], gBG0TilemapBuffer + TILEMAP_INDEX(x, y + (i * 2)));
	bl	.L25		@
@ Patches/../C_code.c:1428:     for (int i = 0; i < 8; ++i)
	adds	r6, r6, #8	@ ivtmp.918,
	cmp	r7, r4	@ _45, ivtmp.920
	bne	.L12		@,
	ldr	r7, .L20+52	@ _79,
	ldr	r6, .L20+56	@ ivtmp.904,
	ldr	r4, .L20+60	@ ivtmp.906,
	add	r7, r7, r8	@ _79, _130
.L13:
@ Patches/../C_code.c:1436:         PutText(&th[c], gBG0TilemapBuffer + TILEMAP_INDEX(x, y + (i * 2)));
	movs	r1, r4	@, ivtmp.906
	movs	r0, r6	@, ivtmp.904
@ Patches/../C_code.c:1434:     for (int i = 0; i < 8; ++i)
	adds	r4, r4, #128	@ ivtmp.906,
@ Patches/../C_code.c:1436:         PutText(&th[c], gBG0TilemapBuffer + TILEMAP_INDEX(x, y + (i * 2)));
	bl	.L25		@
@ Patches/../C_code.c:1434:     for (int i = 0; i < 8; ++i)
	adds	r6, r6, #8	@ ivtmp.904,
	cmp	r7, r4	@ _79, ivtmp.906
	bne	.L13		@,
@ Patches/../C_code.c:1439:     PutText(&th[32], gBG0TilemapBuffer + TILEMAP_INDEX(10, 0));
	ldr	r1, .L20+64	@ tmp158,
	ldr	r0, .L20+68	@ tmp159,
	bl	.L25		@
@ Patches/../C_code.c:1441:     BG_EnableSyncByMask(BG0_SYNC_BIT);
	movs	r0, #1	@,
	ldr	r3, .L20+72	@ tmp161,
	bl	.L24		@
@ Patches/../C_code.c:1442: }
	add	sp, sp, #12	@,,
	@ sp needed	@
	pop	{r4, r5, r6, r7}
	mov	fp, r7
	mov	r10, r6
	mov	r9, r5
	mov	r8, r4
	pop	{r4, r5, r6, r7}
	pop	{r0}
	bx	r0
.L21:
	.align	2
.L20:
	.word	gStatScreen+24
	.word	Text_GetColor
	.word	ClearText
	.word	Text_SetColor
	.word	Text_DrawString
	.word	tags
	.word	gBG0TilemapBuffer+132
	.word	PutText
	.word	1170
	.word	gStatScreen+88
	.word	gBG0TilemapBuffer+146
	.word	gStatScreen+152
	.word	gBG0TilemapBuffer+160
	.word	1198
	.word	gStatScreen+216
	.word	gBG0TilemapBuffer+174
	.word	gBG0TilemapBuffer+20
	.word	gStatScreen+280
	.word	BG_EnableSyncByMask
	.size	DrawFilterCharPage, .-DrawFilterCharPage
	.align	1
	.p2align 2,,3
	.global	LoopFilterCharPage
	.syntax unified
	.code	16
	.thumb_func
	.type	LoopFilterCharPage, %function
LoopFilterCharPage:
	@ Function supports interworking.
	@ args = 0, pretend = 0, frame = 0
	@ frame_needed = 0, uses_anonymous_args = 0
	push	{r4, r5, r6, lr}	@
@ Patches/../C_code.c:1482:     u16 keys = sKeyStatusBuffer.newKeys | sKeyStatusBuffer.repeatedKeys;
	ldr	r3, .L59	@ tmp143,
@ Patches/../C_code.c:1482:     u16 keys = sKeyStatusBuffer.newKeys | sKeyStatusBuffer.repeatedKeys;
	ldrh	r4, [r3, #8]	@ tmp146,
	ldrh	r3, [r3, #6]	@ tmp148,
	orrs	r4, r3	@ keys, tmp148
@ Patches/../C_code.c:1483:     if ((keys & START_BUTTON) || (keys & B_BUTTON))
	movs	r3, #10	@ tmp154,
@ Patches/../C_code.c:1481: {
	movs	r6, r0	@ proc, tmp224
@ Patches/../C_code.c:1483:     if ((keys & START_BUTTON) || (keys & B_BUTTON))
	tst	r3, r4	@ tmp154, keys
	bne	.L56		@,
@ Patches/../C_code.c:1492:     u32 id = proc->previewId;
	movs	r3, #63	@ tmp165,
@ Patches/../C_code.c:1492:     u32 id = proc->previewId;
	ldrsb	r5, [r0, r3]	@ id,
@ Patches/../C_code.c:1493:     if ((keys & A_BUTTON))
	subs	r3, r3, #62	@ tmp167,
	tst	r3, r4	@ tmp167, keys
	bne	.L57		@,
.L29:
@ Patches/../C_code.c:1499:     DisplayUiHand(TagsCursorLocationTable[id].x, TagsCursorLocationTable[id].y);
	ldr	r3, .L59+4	@ tmp177,
	lsls	r2, r5, #3	@ tmp178, id,
	adds	r1, r3, r2	@ tmp179, tmp177, tmp178
@ Patches/../C_code.c:1499:     DisplayUiHand(TagsCursorLocationTable[id].x, TagsCursorLocationTable[id].y);
	ldr	r0, [r2, r3]	@ TagsCursorLocationTable[id_29].x, TagsCursorLocationTable[id_29].x
	ldr	r1, [r1, #4]	@ TagsCursorLocationTable[id_29].y, TagsCursorLocationTable[id_29].y
	ldr	r3, .L59+8	@ tmp185,
	bl	.L24		@
@ Patches/../C_code.c:1500:     if (keys & DPAD_RIGHT)
	lsls	r3, r4, #27	@ tmp225, keys,
	bpl	.L30		@,
@ Patches/../C_code.c:1502:         id += 8;
	adds	r5, r5, #8	@ id,
.L30:
@ Patches/../C_code.c:1504:     if (keys & DPAD_LEFT)
	lsls	r3, r4, #26	@ tmp226, keys,
	bpl	.L31		@,
@ Patches/../C_code.c:1506:         id -= 8;
	subs	r5, r5, #8	@ id,
.L31:
@ Patches/../C_code.c:1508:     if (keys & DPAD_UP)
	lsls	r3, r4, #25	@ tmp227, keys,
	bpl	.L32		@,
@ Patches/../C_code.c:1510:         if (!(id % 8))
	lsls	r3, r5, #29	@ tmp228, id,
	bne	.L33		@,
@ Patches/../C_code.c:1512:             id += 8;
	adds	r5, r5, #8	@ id,
.L33:
@ Patches/../C_code.c:1514:         id--;
	subs	r5, r5, #1	@ id,
.L32:
@ Patches/../C_code.c:1516:     if (keys & DPAD_DOWN)
	lsls	r4, r4, #24	@ tmp229, keys,
	bpl	.L34		@,
@ Patches/../C_code.c:1518:         id++;
	adds	r3, r5, #1	@ id, id,
@ Patches/../C_code.c:1521:             id -= 8;
	subs	r5, r5, #7	@ id,
@ Patches/../C_code.c:1519:         if (!(id % 8))
	lsls	r2, r3, #29	@ tmp230, id,
	beq	.L34		@,
@ Patches/../C_code.c:1518:         id++;
	movs	r5, r3	@ id, id
.L34:
@ Patches/../C_code.c:1525:     if (id != (int)proc->previewId)
	movs	r3, #63	@ tmp218,
@ Patches/../C_code.c:1525:     if (id != (int)proc->previewId)
	ldrsb	r2, [r6, r3]	@ tmp219,
@ Patches/../C_code.c:1525:     if (id != (int)proc->previewId)
	cmp	r2, r5	@ tmp219, id
	bne	.L58		@,
.L26:
@ Patches/../C_code.c:1531: }
	@ sp needed	@
	pop	{r4, r5, r6}
	pop	{r0}
	bx	r0
.L58:
@ Patches/../C_code.c:1527:         id %= 32;
	movs	r2, #31	@ tmp220,
	ands	r2, r5	@ id, id
@ Patches/../C_code.c:1529:         DrawFilterCharPage(proc);
	movs	r0, r6	@, proc
@ Patches/../C_code.c:1528:         proc->previewId = id;
	strb	r2, [r6, r3]	@ id, proc_28(D)->previewId
@ Patches/../C_code.c:1529:         DrawFilterCharPage(proc);
	bl	DrawFilterCharPage		@
	b	.L26		@
.L57:
@ Patches/../C_code.c:1495:         proc->tags ^= (1 << id);
	lsls	r3, r3, r5	@ tmp173, tmp167, id
@ Patches/../C_code.c:1495:         proc->tags ^= (1 << id);
	ldr	r2, [r0, #100]	@ proc_28(D)->tags, proc_28(D)->tags
	eors	r3, r2	@ tmp175, proc_28(D)->tags
	str	r3, [r0, #100]	@ tmp175, proc_28(D)->tags
@ Patches/../C_code.c:1496:         DrawFilterCharPage(proc);
	bl	DrawFilterCharPage		@
	b	.L29		@
.L56:
@ Patches/../C_code.c:1487:         TagValues->raw = proc->tags;
	ldr	r3, .L59+12	@ tmp159,
	ldr	r2, [r0, #100]	@ proc_28(D)->tags, proc_28(D)->tags
	ldr	r3, [r3]	@ TagValues, TagValues
@ Patches/../C_code.c:1488:         Proc_Goto(proc, PreviewCharLabel);
	movs	r1, #2	@,
@ Patches/../C_code.c:1487:         TagValues->raw = proc->tags;
	str	r2, [r3]	@ proc_28(D)->tags, TagValues.48_3->raw
@ Patches/../C_code.c:1488:         Proc_Goto(proc, PreviewCharLabel);
	ldr	r3, .L59+16	@ tmp161,
	bl	.L24		@
@ Patches/../C_code.c:1489:         proc->previewId = ConfirmCommandID;
	movs	r3, #63	@ tmp162,
	movs	r2, #9	@ tmp163,
	strb	r2, [r6, r3]	@ tmp163, proc_28(D)->previewId
@ Patches/../C_code.c:1490:         return;
	b	.L26		@
.L60:
	.align	2
.L59:
	.word	sKeyStatusBuffer
	.word	TagsCursorLocationTable
	.word	DisplayUiHand
	.word	TagValues
	.word	Proc_Goto
	.size	LoopFilterCharPage, .-LoopFilterCharPage
	.align	1
	.p2align 2,,3
	.global	FilterCharInit
	.syntax unified
	.code	16
	.thumb_func
	.type	FilterCharInit, %function
FilterCharInit:
	@ Function supports interworking.
	@ args = 0, pretend = 0, frame = 0
	@ frame_needed = 0, uses_anonymous_args = 0
	push	{r4, r5, r6, r7, lr}	@
	mov	lr, r10	@,
	mov	r7, r9	@,
	mov	r6, r8	@,
	push	{r6, r7, lr}	@
@ Patches/../C_code.c:1352:     ResetTextFont();
	ldr	r5, .L64	@ tmp123,
@ Patches/../C_code.c:1351: {
	sub	sp, sp, #16	@,,
@ Patches/../C_code.c:1351: {
	mov	r9, r0	@ proc, tmp155
@ Patches/../C_code.c:1352:     ResetTextFont();
	bl	.L25		@
@ Patches/../C_code.c:1353:     SetTextFontGlyphs(0);
	ldr	r4, .L64+4	@ tmp124,
	movs	r0, #0	@,
	bl	.L66		@
@ Patches/../C_code.c:1355:     BG_Fill(gBG0TilemapBuffer, 0);
	movs	r1, #0	@,
	ldr	r0, .L64+8	@ tmp125,
	ldr	r3, .L64+12	@ tmp126,
	bl	.L24		@
@ Patches/../C_code.c:1356:     BG_EnableSyncByMask(BG0_SYNC_BIT);
	ldr	r3, .L64+16	@ tmp127,
	movs	r0, #1	@,
	bl	.L24		@
@ Patches/../C_code.c:1357:     ResetTextFont();
	bl	.L25		@
@ Patches/../C_code.c:1358:     SetTextFontGlyphs(0);
	movs	r0, #0	@,
	bl	.L66		@
@ Patches/../C_code.c:1359:     SetTextFont(0);
	movs	r0, #0	@,
	ldr	r3, .L64+20	@ tmp130,
	bl	.L24		@
@ Patches/../C_code.c:1360:     ClearBg0Bg1();
	ldr	r3, .L64+24	@ tmp131,
	bl	.L24		@
@ Patches/../C_code.c:1361:     ResetText();
	ldr	r3, .L64+28	@ tmp132,
	bl	.L24		@
@ Patches/../C_code.c:1368:     DrawUiFrame(
	movs	r3, #0	@ tmp134,
	str	r3, [sp, #8]	@ tmp134,
	str	r3, [sp, #4]	@ tmp134,
	adds	r3, r3, #18	@ tmp136,
	movs	r2, #1	@,
	movs	r1, #1	@,
	ldr	r0, .L64+32	@ tmp133,
	str	r3, [sp]	@ tmp136,
	ldr	r4, .L64+36	@ tmp137,
	adds	r3, r3, #11	@,
	bl	.L66		@
@ Patches/../C_code.c:1377:     InitText(&th[32], 12);
	ldr	r6, .L64+40	@ tmp151,
	ldr	r3, .L64+44	@ tmp152,
	movs	r1, #12	@,
	movs	r0, r6	@, tmp151
	mov	r8, r3	@ tmp152, tmp152
	bl	.L24		@
	ldr	r3, .L64+48	@ tmp153,
	mov	r10, r3	@ tmp153, tmp153
	movs	r5, r3	@ ivtmp.971, tmp153
	subs	r4, r6, #1	@ ivtmp.969, tmp151,
	ldr	r7, .L64+52	@ tmp154,
	subs	r4, r4, #255	@ ivtmp.969,
.L62:
@ Patches/../C_code.c:1380:         InitText(&th[i], TagWidth);
	movs	r0, r4	@, ivtmp.969
	movs	r1, #7	@,
	bl	.L67		@
@ Patches/../C_code.c:1381:         Text_DrawString(&th[i], tags[i]);
	movs	r0, r4	@, ivtmp.969
	ldmia	r5!, {r1}	@ MEM[(const char * *)_37], MEM[(const char * *)_37]
@ Patches/../C_code.c:1378:     for (int i = 0; i < NumberOfTags; ++i)
	adds	r4, r4, #8	@ ivtmp.969,
@ Patches/../C_code.c:1381:         Text_DrawString(&th[i], tags[i]);
	bl	.L68		@
@ Patches/../C_code.c:1378:     for (int i = 0; i < NumberOfTags; ++i)
	cmp	r6, r4	@ tmp151, ivtmp.969
	bne	.L62		@,
@ Patches/../C_code.c:1384:     Text_SetColor(&th[32], green);
	movs	r0, r6	@, tmp151
	movs	r1, #4	@,
	ldr	r3, .L64+56	@ tmp145,
	bl	.L24		@
@ Patches/../C_code.c:1385:     Text_DrawString(&th[32], tags[32]); // "Filter Characters"
	movs	r3, #128	@ tmp147,
	mov	r2, r10	@ tmp153, tmp153
	movs	r0, r6	@, tmp151
	ldr	r1, [r2, r3]	@ tags[32], tags[32]
	bl	.L68		@
@ Patches/../C_code.c:1387:     DrawFilterCharPage(proc);
	mov	r0, r9	@, proc
	bl	DrawFilterCharPage		@
@ Patches/../C_code.c:1388: }
	add	sp, sp, #16	@,,
	@ sp needed	@
	pop	{r5, r6, r7}
	mov	r10, r7
	mov	r9, r6
	mov	r8, r5
	pop	{r4, r5, r6, r7}
	pop	{r0}
	bx	r0
.L65:
	.align	2
.L64:
	.word	ResetTextFont
	.word	SetTextFontGlyphs
	.word	gBG0TilemapBuffer
	.word	BG_Fill
	.word	BG_EnableSyncByMask
	.word	SetTextFont
	.word	ClearBg0Bg1
	.word	ResetText
	.word	gBG1TilemapBuffer
	.word	DrawUiFrame
	.word	gStatScreen+280
	.word	InitText
	.word	tags
	.word	Text_DrawString
	.word	Text_SetColor
	.size	FilterCharInit, .-FilterCharInit
	.align	1
	.p2align 2,,3
	.global	RestoreBackgrounds
	.syntax unified
	.code	16
	.thumb_func
	.type	RestoreBackgrounds, %function
RestoreBackgrounds:
	@ Function supports interworking.
	@ args = 0, pretend = 0, frame = 0
	@ frame_needed = 0, uses_anonymous_args = 0
@ Patches/../C_code.c:8604:     if (proc->calledFromChapter)
	movs	r3, #53	@ tmp116,
@ Patches/../C_code.c:8603: {
	push	{r4, lr}	@
@ Patches/../C_code.c:8604:     if (proc->calledFromChapter)
	ldrb	r3, [r0, r3]	@ tmp117,
	cmp	r3, #0	@ tmp117,
	bne	.L74		@,
.L69:
@ Patches/../C_code.c:8617: }
	@ sp needed	@
	pop	{r4}
	pop	{r0}
	bx	r0
.L74:
@ Patches/../C_code.c:8606:         RefreshBMapGraphics();
	ldr	r3, .L75	@ tmp118,
	bl	.L24		@
@ Patches/../C_code.c:8617: }
	b	.L69		@
.L76:
	.align	2
.L75:
	.word	RefreshBMapGraphics
	.size	RestoreBackgrounds, .-RestoreBackgrounds
	.align	1
	.p2align 2,,3
	.syntax unified
	.code	16
	.thumb_func
	.type	NewGetCharacterData.part.0, %function
NewGetCharacterData.part.0:
	@ Function supports interworking.
	@ args = 0, pretend = 0, frame = 0
	@ frame_needed = 0, uses_anonymous_args = 0
	push	{r3, r4, r5, r6, r7, lr}	@
	mov	lr, fp	@,
	mov	r6, r9	@,
	mov	r7, r10	@,
	mov	r5, r8	@,
@ Patches/../C_code.c:589:     if (!((cData[tableID] + (charId - 1))->number))
	ldr	r3, .L106	@ tmp165,
@ Patches/../C_code.c:557:     NewGetCharacterData(int charId, int tableID)
	mov	fp, r1	@ tableID, tmp194
@ Patches/../C_code.c:589:     if (!((cData[tableID] + (charId - 1))->number))
	lsls	r1, r1, #2	@ tmp166, tableID,
@ Patches/../C_code.c:557:     NewGetCharacterData(int charId, int tableID)
	push	{r5, r6, r7, lr}	@
@ Patches/../C_code.c:589:     if (!((cData[tableID] + (charId - 1))->number))
	ldr	r6, [r1, r3]	@ _2, cData[tableID_1(D)]
@ Patches/../C_code.c:589:     if (!((cData[tableID] + (charId - 1))->number))
	movs	r3, #52	@ tmp167,
	muls	r3, r0	@ _5, charId
	movs	r4, r3	@ tmp168, _5
	subs	r4, r4, #52	@ tmp168,
	adds	r4, r6, r4	@ <retval>, _2, tmp168
@ Patches/../C_code.c:589:     if (!((cData[tableID] + (charId - 1))->number))
	ldrb	r1, [r4, #4]	@ tmp169,
	cmp	r1, #0	@ tmp169,
	bne	.LCB496	@
	b	.L89	@long jump	@
.LCB496:
@ Patches/../C_code.c:597:     if ((table->portraitId) || (IsCharIdPastLimit(charId)))
	ldrh	r5, [r4, #6]	@ prephitmp_35,
@ Patches/../C_code.c:597:     if ((table->portraitId) || (IsCharIdPastLimit(charId)))
	cmp	r5, #0	@ prephitmp_35,
	bne	.L77		@,
@ Patches/../C_code.c:539:     if (charId > 0x22)
	subs	r1, r0, #1	@ tmp170, charId,
	cmp	r1, #33	@ tmp170,
	bls	.L103		@,
.L77:
@ Patches/../C_code.c:664: }
	@ sp needed	@
	movs	r0, r4	@, <retval>
	pop	{r4, r5, r6, r7}
	mov	fp, r7
	mov	r10, r6
	mov	r9, r5
	mov	r8, r4
	pop	{r3, r4, r5, r6, r7}
	pop	{r1}
	bx	r1
.L103:
	movs	r2, #9	@ _215,
	adds	r1, r6, r3	@ tmp172, _2, _5
	mov	r9, r2	@ _215, _215
	subs	r2, r1, r4	@ _210, tmp172, <retval>
	mov	ip, r2	@ _210, _210
@ Patches/../C_code.c:539:     if (charId > 0x22)
	movs	r1, r0	@ ivtmp.1033, charId
	adds	r7, r3, #6	@ tmp171, _5,
	adds	r7, r6, r7	@ ivtmp.1034, _2, tmp171
	add	r9, r9, r0	@ _215, charId
.L79:
	cmp	r1, #35	@ ivtmp.1033,
	beq	.L80		@,
@ Patches/../C_code.c:617:         if (table->portraitId)
	ldrh	r2, [r7]	@ pretmp_83, MEM[(short unsigned int *)_213]
@ Patches/../C_code.c:602:     for (int i = 1; i < 10; ++i)
	adds	r1, r1, #1	@ ivtmp.1033,
@ Patches/../C_code.c:617:         if (table->portraitId)
	mov	r8, r2	@ pretmp_83, pretmp_83
	add	r4, r4, ip	@ <retval>, _210
@ Patches/../C_code.c:602:     for (int i = 1; i < 10; ++i)
	adds	r7, r7, #52	@ ivtmp.1034,
	cmp	r1, r9	@ ivtmp.1033, _215
	beq	.L90		@,
@ Patches/../C_code.c:604:         if (table->portraitId)
	mov	r2, r8	@ pretmp_83, pretmp_83
	cmp	r2, #0	@ pretmp_83,
	beq	.L79		@,
.L90:
	mov	r5, r8	@ prephitmp_35, pretmp_83
.L80:
	movs	r7, r0	@ _194, charId
	subs	r3, r3, #104	@ tmp173,
	adds	r3, r6, r3	@ ivtmp.1016, _2, tmp173
	subs	r1, r0, #3	@ ivtmp.1021, charId,
	subs	r7, r7, #12	@ _194,
.L83:
@ Patches/../C_code.c:617:         if (table->portraitId)
	cmp	r5, #0	@ prephitmp_35,
	bne	.L82		@,
@ Patches/../C_code.c:522:     if (charId < 1 || charId >= MAX_CHAR_ID)
	cmp	r1, #253	@ ivtmp.1021,
	bhi	.L82		@,
@ Patches/../C_code.c:615:     for (int i = 1; i < 10; ++i)
	subs	r1, r1, #1	@ ivtmp.1021,
@ Patches/../C_code.c:626:         table = cData[tableID] + (newCharId);
	movs	r4, r3	@ <retval>, ivtmp.1016
@ Patches/../C_code.c:630:         if (table->portraitId)
	ldrh	r5, [r3, #6]	@ prephitmp_35, MEM[(short unsigned int *)table_29 + 6B]
@ Patches/../C_code.c:615:     for (int i = 1; i < 10; ++i)
	subs	r3, r3, #52	@ ivtmp.1016,
	cmp	r1, r7	@ ivtmp.1021, _194
	bne	.L83		@,
.L82:
	movs	r7, #31	@ tmp174,
	movs	r1, #52	@ tmp175,
	ands	r7, r0	@ _165, charId
	adds	r3, r7, #1	@ ivtmp.1005, _165,
	mov	ip, r3	@ ivtmp.1005, ivtmp.1005
	movs	r3, r1	@ tmp175, tmp175
	movs	r2, #6	@ tmp186,
	mov	r1, ip	@ tmp176, ivtmp.1005
	muls	r1, r3	@ tmp176, tmp175
	subs	r3, r3, #42	@ _179,
	mov	r8, r3	@ _179, _179
	lsls	r3, r7, #26	@ tmp179, _165,
	subs	r3, r3, r7	@ tmp180, tmp179, _165
	lsls	r3, r3, #3	@ tmp181, tmp180,
	adds	r3, r3, r7	@ tmp182, tmp181, _165
	lsls	r3, r3, #1	@ tmp183, tmp182,
	adds	r3, r3, r7	@ tmp184, tmp183, _165
	lsls	r3, r3, #2	@ tmp185, tmp184,
	subs	r2, r2, r3	@ _108, tmp186, tmp185
	mov	r9, r2	@ _108, _108
	adds	r1, r6, r1	@ ivtmp.1003, _2, tmp176
	add	r8, r8, r7	@ _179, _165
.L85:
@ Patches/../C_code.c:630:         if (table->portraitId)
	cmp	r5, #0	@ prephitmp_35,
	bne	.L84		@,
@ Patches/../C_code.c:539:     if (charId > 0x22)
	mov	r2, ip	@ ivtmp.1005, ivtmp.1005
	cmp	r2, #35	@ ivtmp.1005,
	beq	.L84		@,
@ Patches/../C_code.c:643:         if (table->portraitId)
	mov	r2, r9	@ _108, _108
	adds	r5, r1, r3	@ tmp187, ivtmp.1003, tmp185
	ldrh	r5, [r5, r2]	@ prephitmp_35, MEM[(short unsigned int *)_172 + _108 * 1]
@ Patches/../C_code.c:628:     for (int i = 1; i < 10; ++i)
	movs	r2, #1	@ tmp214,
	mov	r10, r2	@ tmp214, tmp214
	add	ip, ip, r10	@ ivtmp.1005, tmp214
@ Patches/../C_code.c:639:         table = cData[tableID] + (newCharId);
	movs	r4, r1	@ <retval>, ivtmp.1003
@ Patches/../C_code.c:628:     for (int i = 1; i < 10; ++i)
	adds	r1, r1, #52	@ ivtmp.1003,
	cmp	ip, r8	@ ivtmp.1005, _179
	bne	.L85		@,
.L84:
	movs	r1, #52	@ tmp188,
	subs	r2, r7, #1	@ ivtmp.991, _165,
	mov	ip, r2	@ ivtmp.991, ivtmp.991
	movs	r2, r1	@ tmp188, tmp188
	mov	r1, ip	@ tmp189, ivtmp.991
	muls	r1, r2	@ tmp189, tmp188
	subs	r7, r7, #10	@ _151,
	adds	r6, r6, r1	@ ivtmp.989, _2, tmp189
@ Patches/../C_code.c:643:         if (table->portraitId)
	cmp	r5, #0	@ prephitmp_35,
	bne	.L77		@,
	mov	r2, ip	@ ivtmp.991, ivtmp.991
	subs	r1, r2, #1	@ _152, ivtmp.991,
@ Patches/../C_code.c:522:     if (charId < 1 || charId >= MAX_CHAR_ID)
	cmp	r1, #253	@ _152,
	bhi	.L87		@,
.L105:
@ Patches/../C_code.c:655:     if ((!table->portraitId))
	mov	r2, r9	@ _108, _108
	adds	r5, r6, r3	@ tmp190, <retval>, tmp185
@ Patches/../C_code.c:652:         table = cData[tableID] + (newCharId);
	movs	r4, r6	@ <retval>, ivtmp.989
@ Patches/../C_code.c:655:     if ((!table->portraitId))
	ldrh	r5, [r5, r2]	@ prephitmp_35, MEM[(short unsigned int *)_144 + _108 * 1]
@ Patches/../C_code.c:641:     for (int i = 1; i < 10; ++i)
	subs	r6, r6, #52	@ ivtmp.989,
	cmp	r7, r1	@ _151, _152
	beq	.L104		@,
	mov	ip, r1	@ ivtmp.991, _152
@ Patches/../C_code.c:643:         if (table->portraitId)
	cmp	r5, #0	@ prephitmp_35,
	bne	.L77		@,
	mov	r2, ip	@ ivtmp.991, ivtmp.991
	subs	r1, r2, #1	@ _152, ivtmp.991,
@ Patches/../C_code.c:522:     if (charId < 1 || charId >= MAX_CHAR_ID)
	cmp	r1, #253	@ _152,
	bls	.L105		@,
.L87:
@ Patches/../C_code.c:657:         BreakWithValue(charId, newCharId, tableID);
	mov	r2, fp	@, tableID
	mov	r1, ip	@, ivtmp.991
	ldr	r3, .L106+4	@ tmp191,
	bl	.L24		@
	b	.L77		@
.L89:
@ Patches/../C_code.c:565:         return NULL;
	movs	r4, #0	@ <retval>,
	b	.L77		@
.L104:
@ Patches/../C_code.c:655:     if ((!table->portraitId))
	cmp	r5, #0	@ prephitmp_35,
	beq	.LCB647	@
	b	.L77	@long jump	@
.LCB647:
	b	.L87		@
.L107:
	.align	2
.L106:
	.word	.LANCHOR0
	.word	BreakWithValue
	.size	NewGetCharacterData.part.0, .-NewGetCharacterData.part.0
	.align	1
	.p2align 2,,3
	.syntax unified
	.code	16
	.thumb_func
	.type	GetUnitListToUse.part.0, %function
GetUnitListToUse.part.0:
	@ Function supports interworking.
	@ args = 0, pretend = 0, frame = 0
	@ frame_needed = 0, uses_anonymous_args = 0
@ Patches/../C_code.c:1994:     if ((RecruitValues->recruitment == 5))
	ldr	r3, .L129	@ tmp134,
	ldr	r2, [r3]	@ pretmp_48, RecruitValues
@ Patches/../C_code.c:1994:     if ((RecruitValues->recruitment == 5))
	movs	r3, #7	@ tmp140,
@ Patches/../C_code.c:2046: int GetUnitListToUse(const struct CharacterData * table, int boss, int excludeNoSupports)
	push	{r4, lr}	@
@ Patches/../C_code.c:1994:     if ((RecruitValues->recruitment == 5))
	ldrb	r4, [r2]	@ MEM[(struct RecruitmentValues *)pretmp_48], MEM[(struct RecruitmentValues *)pretmp_48]
	ands	r3, r4	@ _50, MEM[(struct RecruitmentValues *)pretmp_48]
@ Patches/../C_code.c:2072:     if (boss && (MustCharacterBecomeBoss(table)))
	cmp	r1, #0	@ tmp196,
	beq	.L109		@,
@ Patches/../C_code.c:2001:     if (boss)
	ldr	r1, [r0, #40]	@ table_2(D)->attributes, table_2(D)->attributes
	lsls	r1, r1, #16	@ tmp197, table_2(D)->attributes,
	bpl	.L109		@,
	cmp	r3, #5	@ _50,
	bne	.L110		@,
.L109:
@ Patches/../C_code.c:2078:         if (RecruitValues->recruitment == 2)
	cmp	r3, #2	@ _50,
	beq	.L120		@,
@ Patches/../C_code.c:2090:     if (RecruitValues->recruitment < 4)
	ldrb	r3, [r2]	@ *pretmp_48, *pretmp_48
	lsls	r3, r3, #29	@ tmp162, *pretmp_48,
@ Patches/../C_code.c:2090:     if (RecruitValues->recruitment < 4)
	lsrs	r3, r3, #29	@ tmp165, tmp162,
	cmp	r3, #3	@ tmp165,
	bhi	.L114		@,
@ Patches/../C_code.c:2099:             if (table->number == 0x65) // Idunn, also 0x66
	ldrb	r1, [r0, #4]	@ _17,
@ Patches/../C_code.c:2109:             if (table->number == 0x54) // Pablo fe8
	movs	r3, r1	@ tmp167, _17
	subs	r3, r3, #84	@ tmp167,
	lsls	r3, r3, #24	@ tmp168, tmp167,
	movs	r2, #0	@ _30,
	lsrs	r3, r3, #24	@ _37, tmp168,
	cmp	r3, #19	@ _37,
	bhi	.L116		@,
	ldr	r2, .L129+4	@ tmp172,
	asrs	r2, r2, r3	@ tmp172, tmp172, _37
	movs	r3, r2	@ tmp171, tmp172
	movs	r2, #1	@ tmp177,
	ands	r2, r3	@ tmp176, tmp171
	movs	r3, #1	@ tmp182,
	eors	r2, r3	@ _30, tmp182
.L116:
@ Patches/../C_code.c:2122:             if (table->number > 0xA6) // playables are below 0xA6 unit ID
	cmp	r1, #166	@ _17,
	bhi	.L120		@,
	cmp	r2, #0	@ _30,
	beq	.L114		@,
.L120:
@ Patches/../C_code.c:2055:         return result;
	movs	r0, #0	@ <retval>,
	b	.L108		@
.L114:
@ Patches/../C_code.c:2130:         result = 1;
	movs	r0, #1	@ <retval>,
.L108:
@ Patches/../C_code.c:2134: }
	@ sp needed	@
	pop	{r4}
	pop	{r1}
	bx	r1
.L110:
	subs	r3, r3, #1	@ tmp193,
	subs	r2, r3, #1	@ tmp194, tmp193
	sbcs	r3, r3, r2	@ tmp192, tmp193, tmp194
	lsls	r0, r3, #1	@ <retval>, tmp192,
	b	.L108		@
.L130:
	.align	2
.L129:
	.word	RecruitValues
	.word	-917570
	.size	GetUnitListToUse.part.0, .-GetUnitListToUse.part.0
	.align	1
	.p2align 2,,3
	.syntax unified
	.code	16
	.thumb_func
	.type	ShiftDataInBuffer.part.0, %function
ShiftDataInBuffer.part.0:
	@ Function supports interworking.
	@ args = 0, pretend = 0, frame = 0
	@ frame_needed = 0, uses_anonymous_args = 0
	push	{r4, r5, r6, lr}	@
@ Patches/../C_code.c:9177:     int length = usedBufferLength[0];
	ldr	r4, [r3]	@ length, *usedBufferLength_1(D)
@ Patches/../C_code.c:9179:     if (amount < 0)
	cmp	r1, #0	@ amount,
	blt	.L140		@,
@ Patches/../C_code.c:9194:         if (length + amount >= 0x1000)
	movs	r6, #128	@ tmp146,
@ Patches/../C_code.c:9194:         if (length + amount >= 0x1000)
	adds	r5, r4, r1	@ _56, length, amount
@ Patches/../C_code.c:9194:         if (length + amount >= 0x1000)
	lsls	r6, r6, #5	@ tmp146, tmp146,
	cmp	r5, r6	@ _56, tmp146
	bge	.L131		@,
@ Patches/../C_code.c:9197:         for (int i = length; i >= offset; --i)
	cmp	r4, r2	@ length, offset
	blt	.L136		@,
	adds	r4, r0, r4	@ ivtmp.1053, buffer, length
	subs	r0, r0, #1	@ tmp147,
	adds	r2, r0, r2	@ _67, tmp147, offset
.L137:
@ Patches/../C_code.c:9199:             buffer[i + amount] = buffer[i];
	ldrb	r0, [r4]	@ _24, MEM[(char *)_61]
@ Patches/../C_code.c:9199:             buffer[i + amount] = buffer[i];
	strb	r0, [r4, r1]	@ _24, MEM[(char *)_61 + _63 * 1]
@ Patches/../C_code.c:9197:         for (int i = length; i >= offset; --i)
	subs	r4, r4, #1	@ ivtmp.1053,
	cmp	r4, r2	@ ivtmp.1053, _67
	bne	.L137		@,
@ Patches/../C_code.c:9202:         usedBufferLength[0] += amount;
	ldr	r5, [r3]	@ *usedBufferLength_1(D), *usedBufferLength_1(D)
	adds	r5, r1, r5	@ _56, amount, *usedBufferLength_1(D)
.L136:
	str	r5, [r3]	@ _56, *usedBufferLength_1(D)
.L131:
@ Patches/../C_code.c:9204: }
	@ sp needed	@
	pop	{r4, r5, r6}
	pop	{r0}
	bx	r0
.L140:
	subs	r5, r2, r1	@ _5, offset, amount
@ Patches/../C_code.c:9182:         if (offset + amount > length)
	cmp	r4, r5	@ length, _5
	blt	.L131		@,
@ Patches/../C_code.c:9185:         for (int i = offset; i < length; ++i)
	cmp	r4, r2	@ length, offset
	ble	.L134		@,
	adds	r5, r0, r5	@ ivtmp.1047, buffer, _5
	subs	r0, r0, r1	@ tmp143, buffer, amount
	adds	r0, r0, r4	@ _6, tmp143, length
.L135:
@ Patches/../C_code.c:9187:             buffer[i] = buffer[i + amount];
	ldrb	r4, [r5]	@ _13, MEM[(char *)_39]
@ Patches/../C_code.c:9187:             buffer[i] = buffer[i + amount];
	strb	r4, [r5, r1]	@ _13, MEM[(char *)_39 + _18 * 1]
@ Patches/../C_code.c:9185:         for (int i = offset; i < length; ++i)
	adds	r5, r5, #1	@ ivtmp.1047,
	cmp	r0, r5	@ _6, ivtmp.1047
	bne	.L135		@,
@ Patches/../C_code.c:9190:         usedBufferLength[0] -= amount;
	ldr	r4, [r3]	@ length, *usedBufferLength_1(D)
.L134:
@ Patches/../C_code.c:9190:         usedBufferLength[0] -= amount;
	adds	r4, r1, r4	@ tmp145, amount, length
	str	r4, [r3]	@ tmp145, *usedBufferLength_1(D)
	b	.L131		@
	.size	ShiftDataInBuffer.part.0, .-ShiftDataInBuffer.part.0
	.section	.rodata.str1.4,"aMS",%progbits,1
	.align	2
.LC54:
	.ascii	"-\000"
	.text
	.align	1
	.p2align 2,,3
	.syntax unified
	.code	16
	.thumb_func
	.type	NewPutNumberBonus.part.0, %function
NewPutNumberBonus.part.0:
	@ Function supports interworking.
	@ args = 0, pretend = 0, frame = 0
	@ frame_needed = 0, uses_anonymous_args = 0
	push	{r4, r5, r6, r7, lr}	@
	movs	r5, r0	@ number, tmp177
@ Patches/../C_code.c:11357:     if ((base < 100) && (number < 100))
	movs	r4, #99	@ tmp141,
	movs	r7, #0	@ tmp143,
@ Patches/../C_code.c:11354:     int absNum = ABS(number);
	asrs	r3, r0, #31	@ tmp185, number,
	adds	r0, r0, r3	@ absNum, number, tmp185
@ Patches/../C_code.c:11347: void NewPutNumberBonus(int number, u16 * tm, int base)
	movs	r6, r1	@ tm, tmp178
@ Patches/../C_code.c:11354:     int absNum = ABS(number);
	eors	r0, r3	@ absNum, tmp185
@ Patches/../C_code.c:11357:     if ((base < 100) && (number < 100))
	lsrs	r1, r2, #31	@ tmp142, base,
@ Patches/../C_code.c:11357:     if ((base < 100) && (number < 100))
	lsrs	r3, r5, #31	@ tmp147, number,
@ Patches/../C_code.c:11357:     if ((base < 100) && (number < 100))
	cmp	r4, r2	@ tmp141, base
	adcs	r1, r1, r7	@ tmp140, tmp142, tmp143
@ Patches/../C_code.c:11357:     if ((base < 100) && (number < 100))
	cmp	r4, r5	@ tmp141, number
	adcs	r3, r3, r7	@ tmp145, tmp147, tmp143
@ Patches/../C_code.c:11347: void NewPutNumberBonus(int number, u16 * tm, int base)
	sub	sp, sp, #12	@,,
@ Patches/../C_code.c:11357:     if ((base < 100) && (number < 100))
	ands	r3, r1	@ tmp149, tmp140
@ Patches/../C_code.c:11361:     if (base >= 100)
	movs	r1, #1	@ tmp151,
	cmp	r2, #99	@ base,
	bgt	.L142		@,
	movs	r1, #0	@ tmp151,
.L142:
	orrs	r3, r1	@ tmp156, tmp151
	lsls	r3, r3, #24	@ tmp157, tmp156,
	lsrs	r4, r3, #24	@ _35, tmp157,
	adds	r1, r4, #1	@ _39, _35,
@ Patches/../C_code.c:11366:     if (absNum >= 10)
	cmp	r0, #9	@ absNum,
	ble	.L143		@,
@ Patches/../C_code.c:11370:     if (absNum >= 100)
	cmp	r0, #99	@ absNum,
	ble	.L151		@,
@ Patches/../C_code.c:11372:         specCharPos = 3 + offset;
	adds	r4, r4, #4	@ specCharPos,
@ Patches/../C_code.c:11373:         if (base >= 100)
	cmp	r2, #99	@ base,
	ble	.L145		@,
@ Patches/../C_code.c:11376:             if (number > 0)
	cmp	r5, #0	@ number,
	ble	.L152		@,
@ Patches/../C_code.c:11375:             specCharPos--;
	movs	r4, #4	@ specCharPos,
@ Patches/../C_code.c:11378:                 number = 99;
	movs	r5, #99	@ number,
.L147:
@ Patches/../C_code.c:11389:         PutSpecialChar(tm + offset, green, 0x15); // +
	lsls	r1, r1, #1	@ tmp158, _39,
@ Patches/../C_code.c:11389:         PutSpecialChar(tm + offset, green, 0x15); // +
	adds	r0, r6, r1	@ tmp159, tm, tmp158
	movs	r2, #21	@,
	movs	r1, #4	@,
	ldr	r3, .L153	@ tmp160,
	bl	.L24		@
@ Patches/../C_code.c:11390:         PutNumberSmall(tm + specCharPos, green, number);
	lsls	r0, r4, #1	@ tmp161, specCharPos,
@ Patches/../C_code.c:11390:         PutNumberSmall(tm + specCharPos, green, number);
	movs	r2, r5	@, number
	movs	r1, #4	@,
	ldr	r3, .L153+4	@ tmp163,
	adds	r0, r6, r0	@ tmp162, tm, tmp161
	bl	.L24		@
	b	.L141		@
.L143:
@ Patches/../C_code.c:11365:     int specCharPos = 1 + offset;
	adds	r4, r4, #2	@ specCharPos,
.L145:
@ Patches/../C_code.c:11387:     if (number > 0)
	cmp	r5, #0	@ number,
	bgt	.L147		@,
@ Patches/../C_code.c:11394:         number = ~number + 1; // neg
	rsbs	r5, r5, #0	@ _47, number
.L148:
@ Patches/../C_code.c:11397:         PutDrawText(0, tm + offset, gold, specCharPos, 1, "-");
	ldr	r3, .L153+8	@ tmp166,
	str	r3, [sp, #4]	@ tmp166,
	movs	r3, #1	@ tmp167,
@ Patches/../C_code.c:11397:         PutDrawText(0, tm + offset, gold, specCharPos, 1, "-");
	lsls	r1, r1, #1	@ tmp164, _39,
@ Patches/../C_code.c:11397:         PutDrawText(0, tm + offset, gold, specCharPos, 1, "-");
	movs	r2, #3	@,
	movs	r0, #0	@,
	str	r3, [sp]	@ tmp167,
	adds	r1, r6, r1	@ tmp165, tm, tmp164
	movs	r3, r4	@, specCharPos
	ldr	r7, .L153+12	@ tmp168,
	bl	.L68		@
@ Patches/../C_code.c:11403:         PutNumberSmall(tm + specCharPos, gold, number);
	lsls	r0, r4, #1	@ tmp169, specCharPos,
@ Patches/../C_code.c:11403:         PutNumberSmall(tm + specCharPos, gold, number);
	movs	r2, r5	@, _47
	movs	r1, #3	@,
	ldr	r3, .L153+4	@ tmp171,
	adds	r0, r6, r0	@ tmp170, tm, tmp169
	bl	.L24		@
.L141:
@ Patches/../C_code.c:11405: }
	add	sp, sp, #12	@,,
	@ sp needed	@
	pop	{r4, r5, r6, r7}
	pop	{r0}
	bx	r0
.L151:
@ Patches/../C_code.c:11368:         specCharPos = 2 + offset;
	adds	r4, r4, #3	@ specCharPos,
	b	.L145		@
.L152:
	movs	r5, #99	@ _47,
@ Patches/../C_code.c:11375:             specCharPos--;
	movs	r4, #4	@ specCharPos,
	b	.L148		@
.L154:
	.align	2
.L153:
	.word	PutSpecialChar
	.word	PutNumberSmall
	.word	.LC54
	.word	PutDrawText
	.size	NewPutNumberBonus.part.0, .-NewPutNumberBonus.part.0
	.align	1
	.p2align 2,,3
	.syntax unified
	.code	16
	.thumb_func
	.type	ClearPlayerBWL.part.0, %function
ClearPlayerBWL.part.0:
	@ Function supports interworking.
	@ args = 0, pretend = 0, frame = 0
	@ frame_needed = 0, uses_anonymous_args = 0
	push	{r3, r4, r5, r6, r7, lr}	@
@ Patches/../C_code.c:1777:         pidStats->deployAmt = 0x3F;
	movs	r3, #63	@ tmp168,
@ Patches/../C_code.c:1758: void ClearPlayerBWL(void)
	mov	lr, r9	@,
@ Patches/../C_code.c:1777:         pidStats->deployAmt = 0x3F;
	mov	r9, r3	@ tmp168, tmp168
@ Patches/../C_code.c:1778:         pidStats->moveAmt = 0;
	movs	r3, #63	@ tmp169,
@ Patches/../C_code.c:1758: void ClearPlayerBWL(void)
	mov	r7, r8	@,
@ Patches/../C_code.c:1765:     for (int i = 1; i < 0x46; ++i)
	movs	r4, #1	@ i,
@ Patches/../C_code.c:1778:         pidStats->moveAmt = 0;
	mov	r8, r3	@ tmp169, tmp169
@ Patches/../C_code.c:1758: void ClearPlayerBWL(void)
	push	{r7, lr}	@
	ldr	r6, .L159	@ tmp165,
	ldr	r5, .L159+4	@ tmp166,
@ Patches/../C_code.c:870:     if ((void *)pidStats == (void *)TagValues)
	ldr	r7, .L159+8	@ tmp167,
.L157:
@ Patches/../C_code.c:865:     struct PidStatsChar * pidStats = (struct PidStatsChar *)GetPidStats(i);
	lsls	r0, r4, #24	@ tmp125, i,
	lsrs	r0, r0, #24	@ tmp124, tmp125,
	bl	.L161		@
@ Patches/../C_code.c:866:     if ((void *)pidStats == (void *)RandValues)
	ldr	r3, [r5]	@ RandValues, RandValues
	cmp	r0, r3	@ pidStats, RandValues
	beq	.L156		@,
@ Patches/../C_code.c:870:     if ((void *)pidStats == (void *)TagValues)
	ldr	r3, [r7]	@ TagValues, TagValues
@ Patches/../C_code.c:1768:         if (!pidStats)
	cmp	r3, r0	@ TagValues, pidStats
	beq	.L156		@,
	cmp	r0, #0	@ pidStats,
	beq	.L156		@,
@ Patches/../C_code.c:1772:         if (pidStats->selected)
	ldrb	r2, [r0, #8]	@ *pidStats_13, *pidStats_13
	cmp	r2, #127	@ *pidStats_13,
	bhi	.L156		@,
@ Patches/../C_code.c:1777:         pidStats->deployAmt = 0x3F;
	mov	r1, r9	@ tmp175, tmp168
	ldrb	r3, [r0, #7]	@ pidStats_13->deployAmt, pidStats_13->deployAmt
	orrs	r3, r1	@ tmp170, tmp175
@ Patches/../C_code.c:1778:         pidStats->moveAmt = 0;
	mov	r1, r8	@ tmp169, tmp169
	ands	r3, r1	@ tmp157, tmp169
	strb	r3, [r0, #7]	@ tmp157, pidStats_13->moveAmt
	movs	r3, #127	@ tmp163,
	bics	r2, r3	@ tmp162, tmp163
	strb	r2, [r0, #8]	@ tmp162, pidStats_13->moveAmt
.L156:
@ Patches/../C_code.c:1765:     for (int i = 1; i < 0x46; ++i)
	adds	r4, r4, #1	@ i,
@ Patches/../C_code.c:1765:     for (int i = 1; i < 0x46; ++i)
	cmp	r4, #70	@ i,
	bne	.L157		@,
@ Patches/../C_code.c:1780: }
	@ sp needed	@
	pop	{r6, r7}
	mov	r9, r7
	mov	r8, r6
	pop	{r3, r4, r5, r6, r7}
	pop	{r0}
	bx	r0
.L160:
	.align	2
.L159:
	.word	GetPidStats
	.word	RandValues
	.word	TagValues
	.size	ClearPlayerBWL.part.0, .-ClearPlayerBWL.part.0
	.align	1
	.p2align 2,,3
	.global	MaybeForceHardModeFE8
	.syntax unified
	.code	16
	.thumb_func
	.type	MaybeForceHardModeFE8, %function
MaybeForceHardModeFE8:
	@ Function supports interworking.
	@ args = 0, pretend = 0, frame = 0
	@ frame_needed = 0, uses_anonymous_args = 0
	push	{r4, lr}	@
@ Patches/../C_code.c:238:     ForceHardModeFE8();
	ldr	r3, .L163	@ tmp114,
@ Patches/../C_code.c:239: }
	@ sp needed	@
@ Patches/../C_code.c:238:     ForceHardModeFE8();
	bl	.L24		@
@ Patches/../C_code.c:239: }
	pop	{r4}
	pop	{r0}
	bx	r0
.L164:
	.align	2
.L163:
	.word	ForceHardModeFE8
	.size	MaybeForceHardModeFE8, .-MaybeForceHardModeFE8
	.align	1
	.p2align 2,,3
	.global	ShouldRandomizeRecruitment
	.syntax unified
	.code	16
	.thumb_func
	.type	ShouldRandomizeRecruitment, %function
ShouldRandomizeRecruitment:
	@ Function supports interworking.
	@ args = 0, pretend = 0, frame = 0
	@ frame_needed = 0, uses_anonymous_args = 0
	@ link register save eliminated.
@ Patches/../C_code.c:243:     return RecruitValues->recruitment;
	ldr	r3, .L166	@ tmp119,
@ Patches/../C_code.c:244: }
	@ sp needed	@
@ Patches/../C_code.c:243:     return RecruitValues->recruitment;
	ldr	r3, [r3]	@ RecruitValues, RecruitValues
	ldrb	r0, [r3]	@ *RecruitValues.0_1, *RecruitValues.0_1
	lsls	r0, r0, #29	@ tmp124, *RecruitValues.0_1,
	lsrs	r0, r0, #29	@ tmp117, tmp124,
@ Patches/../C_code.c:244: }
	bx	lr
.L167:
	.align	2
.L166:
	.word	RecruitValues
	.size	ShouldRandomizeRecruitment, .-ShouldRandomizeRecruitment
	.align	1
	.p2align 2,,3
	.global	ShouldRandomizeRecruitmentForUnitID
	.syntax unified
	.code	16
	.thumb_func
	.type	ShouldRandomizeRecruitmentForUnitID, %function
ShouldRandomizeRecruitmentForUnitID:
	@ Function supports interworking.
	@ args = 0, pretend = 0, frame = 0
	@ frame_needed = 0, uses_anonymous_args = 0
@ Patches/../C_code.c:247:     if (!GetCharacterData(id)->portraitId)
	ldr	r3, .L171	@ tmp120,
@ Patches/../C_code.c:246: {
	push	{r4, lr}	@
@ Patches/../C_code.c:247:     if (!GetCharacterData(id)->portraitId)
	bl	.L24		@
@ Patches/../C_code.c:247:     if (!GetCharacterData(id)->portraitId)
	ldrh	r3, [r0, #6]	@ tmp121,
	cmp	r3, #0	@ tmp121,
	beq	.L170		@,
@ Patches/../C_code.c:243:     return RecruitValues->recruitment;
	ldr	r3, .L171+4	@ tmp123,
	ldr	r3, [r3]	@ RecruitValues, RecruitValues
	ldrb	r0, [r3]	@ *RecruitValues.0_7, *RecruitValues.0_7
	lsls	r0, r0, #29	@ tmp128, *RecruitValues.0_7,
	lsrs	r0, r0, #29	@ <retval>, tmp128,
.L168:
@ Patches/../C_code.c:252: }
	@ sp needed	@
	pop	{r4}
	pop	{r1}
	bx	r1
.L170:
@ Patches/../C_code.c:249:         return false;
	movs	r0, #0	@ <retval>,
	b	.L168		@
.L172:
	.align	2
.L171:
	.word	GetCharacterData
	.word	RecruitValues
	.size	ShouldRandomizeRecruitmentForUnitID, .-ShouldRandomizeRecruitmentForUnitID
	.align	1
	.p2align 2,,3
	.global	ShouldRandomizeRecruitmentForPortraitID
	.syntax unified
	.code	16
	.thumb_func
	.type	ShouldRandomizeRecruitmentForPortraitID, %function
ShouldRandomizeRecruitmentForPortraitID:
	@ Function supports interworking.
	@ args = 0, pretend = 0, frame = 0
	@ frame_needed = 0, uses_anonymous_args = 0
	@ link register save eliminated.
@ Patches/../C_code.c:256:     if (!id)
	cmp	r0, #0	@ tmp127,
	beq	.L175		@,
@ Patches/../C_code.c:243:     return RecruitValues->recruitment;
	ldr	r3, .L176	@ tmp119,
	ldr	r3, [r3]	@ RecruitValues, RecruitValues
	ldrb	r0, [r3]	@ *RecruitValues.0_4, *RecruitValues.0_4
	lsls	r0, r0, #29	@ tmp124, *RecruitValues.0_4,
	lsrs	r0, r0, #29	@ <retval>, tmp124,
.L173:
@ Patches/../C_code.c:262: }
	@ sp needed	@
	bx	lr
.L175:
@ Patches/../C_code.c:258:         return false;
	movs	r0, #0	@ <retval>,
	b	.L173		@
.L177:
	.align	2
.L176:
	.word	RecruitValues
	.size	ShouldRandomizeRecruitmentForPortraitID, .-ShouldRandomizeRecruitmentForPortraitID
	.align	1
	.p2align 2,,3
	.global	HashByte_Simple
	.syntax unified
	.code	16
	.thumb_func
	.type	HashByte_Simple, %function
HashByte_Simple:
	@ Function supports interworking.
	@ args = 0, pretend = 0, frame = 0
	@ frame_needed = 0, uses_anonymous_args = 0
	push	{r4, lr}	@
@ Patches/../C_code.c:268:     if (max == 0)
	cmp	r1, #0	@ max,
	beq	.L180		@,
@ Patches/../C_code.c:270:     return Mod((rn >> 3), max);
	ldr	r3, .L181	@ tmp121,
@ Patches/../C_code.c:270:     return Mod((rn >> 3), max);
	lsrs	r0, r0, #3	@ tmp120, rn,
@ Patches/../C_code.c:270:     return Mod((rn >> 3), max);
	bl	.L24		@
.L178:
@ Patches/../C_code.c:271: };
	@ sp needed	@
	pop	{r4}
	pop	{r1}
	bx	r1
.L180:
@ Patches/../C_code.c:269:         return 0;
	movs	r0, #0	@ <retval>,
	b	.L178		@
.L182:
	.align	2
.L181:
	.word	Mod
	.size	HashByte_Simple, .-HashByte_Simple
	.align	1
	.p2align 2,,3
	.global	ShouldRandomizeBG
	.syntax unified
	.code	16
	.thumb_func
	.type	ShouldRandomizeBG, %function
ShouldRandomizeBG:
	@ Function supports interworking.
	@ args = 0, pretend = 0, frame = 0
	@ frame_needed = 0, uses_anonymous_args = 0
	@ link register save eliminated.
@ Patches/../C_code.c:274:     return GrowthValues->Backgrounds;
	ldr	r3, .L184	@ tmp119,
@ Patches/../C_code.c:275: }
	@ sp needed	@
@ Patches/../C_code.c:274:     return GrowthValues->Backgrounds;
	ldr	r3, [r3]	@ GrowthValues, GrowthValues
	ldrb	r0, [r3, #1]	@ *GrowthValues.1_1, *GrowthValues.1_1
	lsls	r0, r0, #26	@ tmp124, *GrowthValues.1_1,
	lsrs	r0, r0, #31	@ tmp117, tmp124,
@ Patches/../C_code.c:275: }
	bx	lr
.L185:
	.align	2
.L184:
	.word	GrowthValues
	.size	ShouldRandomizeBG, .-ShouldRandomizeBG
	.align	1
	.p2align 2,,3
	.global	EnableRandSkills
	.syntax unified
	.code	16
	.thumb_func
	.type	EnableRandSkills, %function
EnableRandSkills:
	@ Function supports interworking.
	@ args = 0, pretend = 0, frame = 0
	@ frame_needed = 0, uses_anonymous_args = 0
	@ link register save eliminated.
@ Patches/../C_code.c:282:     RandValues->skills = 1;
	ldr	r3, .L187	@ tmp116,
@ Patches/../C_code.c:283: }
	@ sp needed	@
@ Patches/../C_code.c:282:     RandValues->skills = 1;
	ldr	r2, [r3]	@ RandValues, RandValues
	movs	r3, #63	@ tmp124,
	ldrb	r1, [r2, #3]	@ RandValues.2_1->skills, RandValues.2_1->skills
	ands	r3, r1	@ tmp123, RandValues.2_1->skills
	movs	r1, #64	@ tmp126,
	orrs	r3, r1	@ tmp128, tmp126
	strb	r3, [r2, #3]	@ tmp128, RandValues.2_1->skills
@ Patches/../C_code.c:283: }
	bx	lr
.L188:
	.align	2
.L187:
	.word	RandValues
	.size	EnableRandSkills, .-EnableRandSkills
	.align	1
	.p2align 2,,3
	.global	GetAlwaysSkill
	.syntax unified
	.code	16
	.thumb_func
	.type	GetAlwaysSkill, %function
GetAlwaysSkill:
	@ Function supports interworking.
	@ args = 0, pretend = 0, frame = 0
	@ frame_needed = 0, uses_anonymous_args = 0
	@ link register save eliminated.
@ Patches/../C_code.c:322:     if (UNIT_FACTION(unit) == FACTION_RED)
	movs	r2, #11	@ tmp124,
	movs	r3, #192	@ tmp125,
	ldrsb	r2, [r0, r2]	@ tmp124,
	ands	r3, r2	@ tmp126, tmp124
@ Patches/../C_code.c:322:     if (UNIT_FACTION(unit) == FACTION_RED)
	cmp	r3, #128	@ tmp126,
	beq	.L191		@,
@ Patches/../C_code.c:326:     if (RandValues->skills != 3)
	movs	r2, #63	@ tmp132,
@ Patches/../C_code.c:326:     if (RandValues->skills != 3)
	ldr	r3, .L194	@ tmp128,
	ldr	r3, [r3]	@ RandValues, RandValues
	ldrb	r3, [r3, #3]	@ *RandValues.6_4, *RandValues.6_4
@ Patches/../C_code.c:324:         return 0;
	movs	r0, #0	@ <retval>,
@ Patches/../C_code.c:326:     if (RandValues->skills != 3)
	bics	r3, r2	@ tmp133, tmp132
	cmp	r3, #192	@ tmp133,
	beq	.L193		@,
.L189:
@ Patches/../C_code.c:331: }
	@ sp needed	@
	bx	lr
.L193:
@ Patches/../C_code.c:330:     return *AlwaysSkill;
	ldr	r3, .L194+4	@ tmp136,
	ldr	r3, [r3]	@ AlwaysSkill, AlwaysSkill
	ldrb	r0, [r3]	@ <retval>, *AlwaysSkill.7_7
	b	.L189		@
.L191:
@ Patches/../C_code.c:324:         return 0;
	movs	r0, #0	@ <retval>,
	b	.L189		@
.L195:
	.align	2
.L194:
	.word	RandValues
	.word	AlwaysSkill
	.size	GetAlwaysSkill, .-GetAlwaysSkill
	.align	1
	.p2align 2,,3
	.global	GetNextAlwaysSkill
	.syntax unified
	.code	16
	.thumb_func
	.type	GetNextAlwaysSkill, %function
GetNextAlwaysSkill:
	@ Function supports interworking.
	@ args = 0, pretend = 0, frame = 0
	@ frame_needed = 0, uses_anonymous_args = 0
	@ link register save eliminated.
@ Patches/../C_code.c:337:     for (int i = id; i < NumberOfSkills; ++i)
	ldr	r3, .L207	@ tmp121,
	ldr	r2, [r3]	@ NumberOfSkills.8_10, NumberOfSkills
@ Patches/../C_code.c:336:     id++;
	adds	r0, r0, #1	@ <retval>,
@ Patches/../C_code.c:337:     for (int i = id; i < NumberOfSkills; ++i)
	cmp	r0, r2	@ <retval>, NumberOfSkills.8_10
	bge	.L197		@,
	ldr	r1, .L207+4	@ tmp129,
	b	.L199		@
.L204:
@ Patches/../C_code.c:337:     for (int i = id; i < NumberOfSkills; ++i)
	adds	r0, r0, #1	@ <retval>,
@ Patches/../C_code.c:337:     for (int i = id; i < NumberOfSkills; ++i)
	cmp	r2, r0	@ NumberOfSkills.8_10, <retval>
	beq	.L197		@,
.L199:
@ Patches/../C_code.c:339:         if (AlwaysSkillTable[i])
	ldrb	r3, [r1, r0]	@ MEM[(unsigned char *)&AlwaysSkillTable + _5 * 1], MEM[(unsigned char *)&AlwaysSkillTable + _5 * 1]
	cmp	r3, #0	@ MEM[(unsigned char *)&AlwaysSkillTable + _5 * 1],
	beq	.L204		@,
.L196:
@ Patches/../C_code.c:352: }
	@ sp needed	@
	bx	lr
.L197:
@ Patches/../C_code.c:344:     for (int i = 0; i < NumberOfSkills; ++i)
	movs	r0, #0	@ <retval>,
@ Patches/../C_code.c:344:     for (int i = 0; i < NumberOfSkills; ++i)
	cmp	r2, #0	@ NumberOfSkills.8_10,
	ble	.L196		@,
	ldr	r1, .L207+4	@ tmp129,
	b	.L200		@
.L206:
@ Patches/../C_code.c:344:     for (int i = 0; i < NumberOfSkills; ++i)
	adds	r0, r0, #1	@ <retval>,
@ Patches/../C_code.c:344:     for (int i = 0; i < NumberOfSkills; ++i)
	cmp	r2, r0	@ NumberOfSkills.8_10, <retval>
	beq	.L205		@,
.L200:
@ Patches/../C_code.c:346:         if (AlwaysSkillTable[i])
	ldrb	r3, [r1, r0]	@ MEM[(unsigned char *)&AlwaysSkillTable + _6 * 1], MEM[(unsigned char *)&AlwaysSkillTable + _6 * 1]
	cmp	r3, #0	@ MEM[(unsigned char *)&AlwaysSkillTable + _6 * 1],
	beq	.L206		@,
	b	.L196		@
.L205:
@ Patches/../C_code.c:351:     return 0;
	movs	r0, #0	@ <retval>,
	b	.L196		@
.L208:
	.align	2
.L207:
	.word	NumberOfSkills
	.word	AlwaysSkillTable
	.size	GetNextAlwaysSkill, .-GetNextAlwaysSkill
	.align	1
	.p2align 2,,3
	.global	GetPreviousAlwaysSkill
	.syntax unified
	.code	16
	.thumb_func
	.type	GetPreviousAlwaysSkill, %function
GetPreviousAlwaysSkill:
	@ Function supports interworking.
	@ args = 0, pretend = 0, frame = 0
	@ frame_needed = 0, uses_anonymous_args = 0
	@ link register save eliminated.
@ Patches/../C_code.c:355:     id--;
	subs	r0, r0, #1	@ <retval>,
@ Patches/../C_code.c:356:     for (int i = id; i > 0; --i)
	cmp	r0, #0	@ <retval>,
	ble	.L210		@,
	ldr	r2, .L219	@ tmp128,
	b	.L212		@
.L217:
@ Patches/../C_code.c:356:     for (int i = id; i > 0; --i)
	subs	r0, r0, #1	@ <retval>,
@ Patches/../C_code.c:356:     for (int i = id; i > 0; --i)
	cmp	r0, #0	@ <retval>,
	beq	.L210		@,
.L212:
@ Patches/../C_code.c:358:         if (AlwaysSkillTable[i])
	ldrb	r3, [r2, r0]	@ MEM[(unsigned char *)&AlwaysSkillTable + _15 * 1], MEM[(unsigned char *)&AlwaysSkillTable + _15 * 1]
	cmp	r3, #0	@ MEM[(unsigned char *)&AlwaysSkillTable + _15 * 1],
	beq	.L217		@,
.L209:
@ Patches/../C_code.c:371: }
	@ sp needed	@
	bx	lr
.L210:
@ Patches/../C_code.c:363:     for (int i = NumberOfSkills; i > 0; --i)
	ldr	r3, .L219+4	@ tmp123,
	ldr	r0, [r3]	@ <retval>, NumberOfSkills
@ Patches/../C_code.c:363:     for (int i = NumberOfSkills; i > 0; --i)
	cmp	r0, #0	@ <retval>,
	ble	.L214		@,
	ldr	r2, .L219	@ tmp128,
	b	.L213		@
.L218:
@ Patches/../C_code.c:363:     for (int i = NumberOfSkills; i > 0; --i)
	subs	r0, r0, #1	@ <retval>,
@ Patches/../C_code.c:363:     for (int i = NumberOfSkills; i > 0; --i)
	cmp	r0, #0	@ <retval>,
	beq	.L209		@,
.L213:
@ Patches/../C_code.c:365:         if (AlwaysSkillTable[i])
	ldrb	r3, [r2, r0]	@ MEM[(unsigned char *)&AlwaysSkillTable + _2 * 1], MEM[(unsigned char *)&AlwaysSkillTable + _2 * 1]
	cmp	r3, #0	@ MEM[(unsigned char *)&AlwaysSkillTable + _2 * 1],
	beq	.L218		@,
	b	.L209		@
.L214:
@ Patches/../C_code.c:370:     return 0;
	movs	r0, #0	@ <retval>,
	b	.L209		@
.L220:
	.align	2
.L219:
	.word	AlwaysSkillTable
	.word	NumberOfSkills
	.size	GetPreviousAlwaysSkill, .-GetPreviousAlwaysSkill
	.align	1
	.p2align 2,,3
	.global	ShouldRandomizeUsedCharTable
	.syntax unified
	.code	16
	.thumb_func
	.type	ShouldRandomizeUsedCharTable, %function
ShouldRandomizeUsedCharTable:
	@ Function supports interworking.
	@ args = 0, pretend = 0, frame = 0
	@ frame_needed = 0, uses_anonymous_args = 0
	@ link register save eliminated.
@ Patches/../C_code.c:457:     if (!val)
	movs	r2, #31	@ tmp132,
@ Patches/../C_code.c:462: }
	@ sp needed	@
@ Patches/../C_code.c:457:     if (!val)
	movs	r0, #0	@ tmp140,
@ Patches/../C_code.c:456:     int val = GrowthValues->ForcedCharTable;
	ldr	r3, .L222	@ tmp121,
	ldr	r3, [r3]	@ GrowthValues, GrowthValues
	ldrb	r3, [r3, #1]	@ *GrowthValues.10_1, *GrowthValues.10_1
	lsls	r3, r3, #27	@ tmp126, *GrowthValues.10_1,
	lsrs	r3, r3, #27	@ tmp125, tmp126,
@ Patches/../C_code.c:457:     if (!val)
	adds	r3, r3, #31	@ tmp127,
	ands	r3, r2	@ tmp136, tmp132
	subs	r2, r2, #21	@ tmp139,
	cmp	r2, r3	@ tmp139, tmp136
	adcs	r0, r0, r0	@ tmp138, tmp140, tmp140
@ Patches/../C_code.c:462: }
	bx	lr
.L223:
	.align	2
.L222:
	.word	GrowthValues
	.size	ShouldRandomizeUsedCharTable, .-ShouldRandomizeUsedCharTable
	.align	1
	.p2align 2,,3
	.global	GetForcedCharTable
	.syntax unified
	.code	16
	.thumb_func
	.type	GetForcedCharTable, %function
GetForcedCharTable:
	@ Function supports interworking.
	@ args = 0, pretend = 0, frame = 0
	@ frame_needed = 0, uses_anonymous_args = 0
	@ link register save eliminated.
@ Patches/../C_code.c:466:     return GrowthValues->ForcedCharTable;
	ldr	r3, .L225	@ tmp119,
@ Patches/../C_code.c:467: }
	@ sp needed	@
@ Patches/../C_code.c:466:     return GrowthValues->ForcedCharTable;
	ldr	r3, [r3]	@ GrowthValues, GrowthValues
	ldrb	r0, [r3, #1]	@ *GrowthValues.11_1, *GrowthValues.11_1
	lsls	r0, r0, #27	@ tmp124, *GrowthValues.11_1,
	lsrs	r0, r0, #27	@ tmp117, tmp124,
@ Patches/../C_code.c:467: }
	bx	lr
.L226:
	.align	2
.L225:
	.word	GrowthValues
	.size	GetForcedCharTable, .-GetForcedCharTable
	.align	1
	.p2align 2,,3
	.global	IsCharIdInvalidForGame
	.syntax unified
	.code	16
	.thumb_func
	.type	IsCharIdInvalidForGame, %function
IsCharIdInvalidForGame:
	@ Function supports interworking.
	@ args = 0, pretend = 0, frame = 0
	@ frame_needed = 0, uses_anonymous_args = 0
	@ link register save eliminated.
@ Patches/../C_code.c:493:     if (charId < 1 || charId >= MAX_CHAR_ID)
	subs	r3, r0, #1	@ tmp125, charId,
	cmp	r3, #203	@ tmp125,
	bhi	.L231		@,
@ Patches/../C_code.c:510:     if ((charId > 0x3a && charId < 0x6e) || (charId > 0x7f && charId < 0x95) || (charId > 0xA7 && charId < 0xC5) ||
	movs	r2, r0	@ tmp126, charId
	movs	r3, #0	@ tmp130,
	movs	r1, #50	@ tmp129,
	subs	r2, r2, #59	@ tmp126,
	cmp	r1, r2	@ tmp129, tmp126
	adcs	r3, r3, r3	@ tmp128, tmp130, tmp130
@ Patches/../C_code.c:510:     if ((charId > 0x3a && charId < 0x6e) || (charId > 0x7f && charId < 0x95) || (charId > 0xA7 && charId < 0xC5) ||
	cmp	r3, #0	@ tmp131,
	bne	.L231		@,
@ Patches/../C_code.c:510:     if ((charId > 0x3a && charId < 0x6e) || (charId > 0x7f && charId < 0x95) || (charId > 0xA7 && charId < 0xC5) ||
	movs	r3, r0	@ tmp133, charId
	subs	r3, r3, #128	@ tmp133,
@ Patches/../C_code.c:510:     if ((charId > 0x3a && charId < 0x6e) || (charId > 0x7f && charId < 0x95) || (charId > 0xA7 && charId < 0xC5) ||
	cmp	r3, #20	@ tmp133,
	bls	.L231		@,
@ Patches/../C_code.c:510:     if ((charId > 0x3a && charId < 0x6e) || (charId > 0x7f && charId < 0x95) || (charId > 0xA7 && charId < 0xC5) ||
	subs	r3, r3, #40	@ tmp140,
@ Patches/../C_code.c:510:     if ((charId > 0x3a && charId < 0x6e) || (charId > 0x7f && charId < 0x95) || (charId > 0xA7 && charId < 0xC5) ||
	cmp	r3, #28	@ tmp140,
	bls	.L231		@,
@ Patches/../C_code.c:511:         (charId > 0xA7 && charId < 0xC5) || (charId == 0xC6) || (charId > 0xCC))
	subs	r0, r0, #198	@ tmp143,
	rsbs	r3, r0, #0	@ tmp144, tmp143
	adcs	r0, r0, r3	@ <retval>, tmp143, tmp144
	b	.L227		@
.L231:
@ Patches/../C_code.c:495:         return true;
	movs	r0, #1	@ <retval>,
.L227:
@ Patches/../C_code.c:518: }
	@ sp needed	@
	bx	lr
	.size	IsCharIdInvalidForGame, .-IsCharIdInvalidForGame
	.align	1
	.p2align 2,,3
	.global	IsCharIdPastLimit
	.syntax unified
	.code	16
	.thumb_func
	.type	IsCharIdPastLimit, %function
IsCharIdPastLimit:
	@ Function supports interworking.
	@ args = 0, pretend = 0, frame = 0
	@ frame_needed = 0, uses_anonymous_args = 0
	@ link register save eliminated.
@ Patches/../C_code.c:539:     if (charId > 0x22)
	movs	r3, #33	@ tmp123,
@ Patches/../C_code.c:546: }
	@ sp needed	@
@ Patches/../C_code.c:539:     if (charId > 0x22)
	subs	r0, r0, #1	@ tmp120,
	cmp	r3, r0	@ tmp123, tmp120
	sbcs	r0, r0, r0	@ tmp126
	rsbs	r0, r0, #0	@ tmp122, tmp126
@ Patches/../C_code.c:546: }
	bx	lr
	.size	IsCharIdPastLimit, .-IsCharIdPastLimit
	.align	1
	.p2align 2,,3
	.global	NewGetCharacterData
	.syntax unified
	.code	16
	.thumb_func
	.type	NewGetCharacterData, %function
NewGetCharacterData:
	@ Function supports interworking.
	@ args = 0, pretend = 0, frame = 0
	@ frame_needed = 0, uses_anonymous_args = 0
	push	{r4, r5, r6, lr}	@
@ Patches/../C_code.c:558: {
	movs	r4, r0	@ charId, tmp120
	movs	r5, r1	@ tableID, tmp121
@ Patches/../C_code.c:564:     if (charId < 1)
	cmp	r0, #0	@ charId,
	ble	.L237		@,
@ Patches/../C_code.c:567:     if (!tableID)
	cmp	r1, #0	@ tableID,
	beq	.L236		@,
@ Patches/../C_code.c:583:     if (IsCharIdInvalidForGame(charId))
	bl	IsCharIdInvalidForGame		@
@ Patches/../C_code.c:583:     if (IsCharIdInvalidForGame(charId))
	cmp	r0, #0	@ tmp123,
	bne	.L236		@,
	movs	r1, r5	@, tableID
	movs	r0, r4	@, charId
	bl	NewGetCharacterData.part.0		@
.L233:
@ Patches/../C_code.c:664: }
	@ sp needed	@
	pop	{r4, r5, r6}
	pop	{r1}
	bx	r1
.L236:
@ Patches/../C_code.c:572:         return GetCharacterData(charId);
	movs	r0, r4	@, charId
	ldr	r3, .L238	@ tmp118,
	bl	.L24		@
	b	.L233		@
.L237:
@ Patches/../C_code.c:565:         return NULL;
	movs	r0, #0	@ <retval>,
	b	.L233		@
.L239:
	.align	2
.L238:
	.word	GetCharacterData
	.size	NewGetCharacterData, .-NewGetCharacterData
	.align	1
	.p2align 2,,3
	.global	EndAllRecruitmentProcs
	.syntax unified
	.code	16
	.thumb_func
	.type	EndAllRecruitmentProcs, %function
EndAllRecruitmentProcs:
	@ Function supports interworking.
	@ args = 0, pretend = 0, frame = 0
	@ frame_needed = 0, uses_anonymous_args = 0
	push	{r4, r5, r6, lr}	@
@ Patches/../C_code.c:696:     Proc_EndEach(RecruitmentProcCmd1);
	ldr	r5, .L241	@ tmp114,
@ Patches/../C_code.c:701: }
	@ sp needed	@
@ Patches/../C_code.c:696:     Proc_EndEach(RecruitmentProcCmd1);
	movs	r0, r5	@ tmp115, tmp114
	ldr	r4, .L241+4	@ tmp116,
	adds	r0, r0, #48	@ tmp115,
	bl	.L66		@
@ Patches/../C_code.c:697:     Proc_EndEach(RecruitmentProcCmd2);
	movs	r0, r5	@ tmp118, tmp114
	adds	r0, r0, #80	@ tmp118,
	bl	.L66		@
@ Patches/../C_code.c:698:     Proc_EndEach(RecruitmentProcCmd3);
	movs	r0, r5	@ tmp114, tmp114
	adds	r0, r0, #112	@ tmp114,
	bl	.L66		@
@ Patches/../C_code.c:699:     Proc_EndEach(RecruitmentProcCmd4);
	ldr	r5, .L241+8	@ tmp123,
	movs	r0, r5	@ tmp124, tmp123
	adds	r0, r0, #16	@ tmp124,
	bl	.L66		@
@ Patches/../C_code.c:700:     Proc_EndEach(RecruitmentProcCmd5);
	movs	r0, r5	@ tmp123, tmp123
	adds	r0, r0, #48	@ tmp123,
	bl	.L66		@
@ Patches/../C_code.c:701: }
	pop	{r4, r5, r6}
	pop	{r0}
	bx	r0
.L242:
	.align	2
.L241:
	.word	.LANCHOR0
	.word	Proc_EndEach
	.word	.LANCHOR1
	.size	EndAllRecruitmentProcs, .-EndAllRecruitmentProcs
	.align	1
	.p2align 2,,3
	.global	PosToChangePage
	.syntax unified
	.code	16
	.thumb_func
	.type	PosToChangePage, %function
PosToChangePage:
	@ Function supports interworking.
	@ args = 0, pretend = 0, frame = 0
	@ frame_needed = 0, uses_anonymous_args = 0
	@ link register save eliminated.
@ Patches/../C_code.c:849:     return proc->previewId == PageCommandID;
	movs	r3, #63	@ tmp119,
@ Patches/../C_code.c:850: }
	@ sp needed	@
@ Patches/../C_code.c:849:     return proc->previewId == PageCommandID;
	ldrsb	r0, [r0, r3]	@ tmp121,
	subs	r0, r0, #10	@ tmp123,
	rsbs	r3, r0, #0	@ tmp124, tmp123
	adcs	r0, r0, r3	@ tmp122, tmp123, tmp124
@ Patches/../C_code.c:850: }
	bx	lr
	.size	PosToChangePage, .-PosToChangePage
	.align	1
	.p2align 2,,3
	.global	GetPidStatsSafe
	.syntax unified
	.code	16
	.thumb_func
	.type	GetPidStatsSafe, %function
GetPidStatsSafe:
	@ Function supports interworking.
	@ args = 0, pretend = 0, frame = 0
	@ frame_needed = 0, uses_anonymous_args = 0
@ Patches/../C_code.c:865:     struct PidStatsChar * pidStats = (struct PidStatsChar *)GetPidStats(i);
	lsls	r0, r0, #24	@ tmp120, tmp132,
	ldr	r3, .L248	@ tmp121,
@ Patches/../C_code.c:864: {
	push	{r4, lr}	@
@ Patches/../C_code.c:865:     struct PidStatsChar * pidStats = (struct PidStatsChar *)GetPidStats(i);
	lsrs	r0, r0, #24	@ tmp119, tmp120,
	bl	.L24		@
@ Patches/../C_code.c:866:     if ((void *)pidStats == (void *)RandValues)
	ldr	r3, .L248+4	@ tmp122,
@ Patches/../C_code.c:866:     if ((void *)pidStats == (void *)RandValues)
	ldr	r3, [r3]	@ RandValues, RandValues
	cmp	r3, r0	@ RandValues, <retval>
	beq	.L246		@,
@ Patches/../C_code.c:870:     if ((void *)pidStats == (void *)TagValues)
	ldr	r3, .L248+8	@ tmp124,
@ Patches/../C_code.c:870:     if ((void *)pidStats == (void *)TagValues)
	ldr	r3, [r3]	@ TagValues, TagValues
@ Patches/../C_code.c:868:         return NULL;
	subs	r3, r3, r0	@ tmp129, TagValues, <retval>
	subs	r2, r3, #1	@ tmp130, tmp129
	sbcs	r3, r3, r2	@ tmp128, tmp129, tmp130
	rsbs	r3, r3, #0	@ tmp131, tmp128
	ands	r0, r3	@ <retval>, tmp131
.L244:
@ Patches/../C_code.c:875: }
	@ sp needed	@
	pop	{r4}
	pop	{r1}
	bx	r1
.L246:
@ Patches/../C_code.c:868:         return NULL;
	movs	r0, #0	@ <retval>,
	b	.L244		@
.L249:
	.align	2
.L248:
	.word	GetPidStats
	.word	RandValues
	.word	TagValues
	.size	GetPidStatsSafe, .-GetPidStatsSafe
	.align	1
	.p2align 2,,3
	.global	RerollPage
	.syntax unified
	.code	16
	.thumb_func
	.type	RerollPage, %function
RerollPage:
	@ Function supports interworking.
	@ args = 0, pretend = 0, frame = 0
	@ frame_needed = 0, uses_anonymous_args = 0
	push	{r4, r5, r6, r7, lr}	@
	mov	r6, r8	@,
	mov	lr, r10	@,
	mov	r7, r9	@,
@ Patches/../C_code.c:880:     int offset = proc->previewPage * NumberOfCharsPerPage;
	movs	r3, #62	@ tmp140,
@ Patches/../C_code.c:878: {
	push	{r6, r7, lr}	@
@ Patches/../C_code.c:880:     int offset = proc->previewPage * NumberOfCharsPerPage;
	ldrsb	r3, [r0, r3]	@ tmp141,
@ Patches/../C_code.c:880:     int offset = proc->previewPage * NumberOfCharsPerPage;
	lsls	r4, r3, #3	@ tmp143, tmp141,
	subs	r4, r4, r3	@ offset, tmp143, tmp141
	ldr	r3, .L260	@ tmp199,
	mov	r10, r3	@ tmp199, tmp199
@ Patches/../C_code.c:870:     if ((void *)pidStats == (void *)TagValues)
	ldr	r3, .L260+4	@ tmp203,
	mov	r8, r3	@ tmp203, tmp203
@ Patches/../C_code.c:891:         pidStats->deployAmt = 0x3F;
	movs	r3, #63	@ tmp204,
@ Patches/../C_code.c:880:     int offset = proc->previewPage * NumberOfCharsPerPage;
	movs	r5, #7	@ ivtmp_28,
@ Patches/../C_code.c:891:         pidStats->deployAmt = 0x3F;
	mov	r9, r3	@ tmp204, tmp204
	ldr	r6, .L260+8	@ tmp198,
	adds	r4, r4, #1	@ ivtmp.1166,
.L255:
@ Patches/../C_code.c:884:         id = GetReviseCharByID(offset + i);
	subs	r3, r4, #1	@ _3, ivtmp.1166,
	mov	ip, r3	@ _3, _3
@ Patches/../C_code.c:1250:     id += GetHiddenCharPreviewOffset(id + 1) + 1; // +1 because we count from 0
	subs	r3, r4, #0	@ _38, ivtmp.1166,
@ Patches/../C_code.c:1213:     for (int i = 1; i <= (charID + c); ++i)
	ble	.L251		@,
@ Patches/../C_code.c:1212:     int c = 0;
	movs	r3, #0	@ c,
@ Patches/../C_code.c:1213:     for (int i = 1; i <= (charID + c); ++i)
	movs	r1, #1	@ i,
	ldr	r7, .L260+12	@ ivtmp.1158,
.L253:
@ Patches/../C_code.c:1215:         if (HideCharPreviewExceptions[i].NeverChangeFrom)
	ldrb	r2, [r7]	@ MEM[(unsigned char *)_63], MEM[(unsigned char *)_63]
@ Patches/../C_code.c:1217:             c++;
	subs	r0, r2, #1	@ tmp202, MEM[(unsigned char *)_63]
	sbcs	r2, r2, r0	@ tmp201, MEM[(unsigned char *)_63], tmp202
	adds	r3, r3, r2	@ c, c, tmp201
@ Patches/../C_code.c:1213:     for (int i = 1; i <= (charID + c); ++i)
	adds	r1, r1, #1	@ i,
@ Patches/../C_code.c:1213:     for (int i = 1; i <= (charID + c); ++i)
	adds	r2, r4, r3	@ tmp146, ivtmp.1166, c
@ Patches/../C_code.c:1213:     for (int i = 1; i <= (charID + c); ++i)
	adds	r7, r7, #2	@ ivtmp.1158,
	cmp	r1, r2	@ i, tmp146
	ble	.L253		@,
@ Patches/../C_code.c:1250:     id += GetHiddenCharPreviewOffset(id + 1) + 1; // +1 because we count from 0
	adds	r3, r3, #1	@ tmp147,
@ Patches/../C_code.c:1250:     id += GetHiddenCharPreviewOffset(id + 1) + 1; // +1 because we count from 0
	add	r3, r3, ip	@ _38, _3
.L251:
@ Patches/../C_code.c:865:     struct PidStatsChar * pidStats = (struct PidStatsChar *)GetPidStats(i);
	lsls	r3, r3, #24	@ tmp149, _38,
	lsrs	r0, r3, #24	@ tmp148, tmp149,
	bl	.L262		@
@ Patches/../C_code.c:866:     if ((void *)pidStats == (void *)RandValues)
	ldr	r2, [r6]	@ RandValues.31_24, RandValues
@ Patches/../C_code.c:866:     if ((void *)pidStats == (void *)RandValues)
	cmp	r0, r2	@ pidStats, RandValues.31_24
	beq	.L254		@,
@ Patches/../C_code.c:870:     if ((void *)pidStats == (void *)TagValues)
	mov	r3, r8	@ tmp203, tmp203
	ldr	r3, [r3]	@ TagValues, TagValues
@ Patches/../C_code.c:886:         if (!pidStats)
	cmp	r3, r0	@ TagValues, pidStats
	beq	.L254		@,
	rsbs	r3, r0, #0	@ tmp163, pidStats
	adcs	r3, r3, r0	@ tmp163, pidStats
	cmp	r3, #0	@ tmp163,
	bne	.L254		@,
@ Patches/../C_code.c:891:         pidStats->deployAmt = 0x3F;
	mov	r1, r9	@ tmp204, tmp204
@ Patches/../C_code.c:893:         pidStats->moveAmt = 0;
	strb	r3, [r0, #8]	@ tmp163, MEM <unsigned char> [(struct PidStatsChar *)pidStats_23 + 8B]
@ Patches/../C_code.c:891:         pidStats->deployAmt = 0x3F;
	strb	r1, [r0, #7]	@ tmp204, MEM <unsigned char> [(struct PidStatsChar *)pidStats_23 + 7B]
.L254:
@ Patches/../C_code.c:882:     for (int i = 0; i < NumberOfCharsPerPage; ++i)
	subs	r5, r5, #1	@ ivtmp_28,
	adds	r4, r4, #1	@ ivtmp.1166,
	cmp	r5, #0	@ ivtmp_28,
	bne	.L255		@,
@ Patches/../C_code.c:897: }
	@ sp needed	@
@ Patches/../C_code.c:895:     RandValues->seed++;
	movs	r0, #128	@ tmp214,
	lsls	r0, r0, #5	@ tmp214, tmp214,
	mov	ip, r0	@ tmp214, tmp214
@ Patches/../C_code.c:696:     Proc_EndEach(RecruitmentProcCmd1);
	ldr	r5, .L260+16	@ tmp183,
	movs	r0, r5	@ tmp184, tmp183
@ Patches/../C_code.c:895:     RandValues->seed++;
	ldr	r3, [r2]	@ *RandValues.31_24, *RandValues.31_24
	lsls	r1, r3, #12	@ tmp172, *RandValues.31_24,
@ Patches/../C_code.c:895:     RandValues->seed++;
	add	r1, r1, ip	@ tmp178, tmp214
	lsrs	r3, r3, #20	@ tmp181, *RandValues.31_24,
	lsrs	r1, r1, #12	@ tmp177, tmp178,
	lsls	r3, r3, #20	@ tmp180, tmp181,
	orrs	r3, r1	@ tmp182, tmp177
	str	r3, [r2]	@ tmp182, RandValues.31_24->seed
@ Patches/../C_code.c:696:     Proc_EndEach(RecruitmentProcCmd1);
	ldr	r4, .L260+20	@ tmp185,
	adds	r0, r0, #48	@ tmp184,
	bl	.L66		@
@ Patches/../C_code.c:697:     Proc_EndEach(RecruitmentProcCmd2);
	movs	r0, r5	@ tmp187, tmp183
	adds	r0, r0, #80	@ tmp187,
	bl	.L66		@
@ Patches/../C_code.c:698:     Proc_EndEach(RecruitmentProcCmd3);
	movs	r0, r5	@ tmp183, tmp183
	adds	r0, r0, #112	@ tmp183,
	bl	.L66		@
@ Patches/../C_code.c:699:     Proc_EndEach(RecruitmentProcCmd4);
	ldr	r5, .L260+24	@ tmp192,
	movs	r0, r5	@ tmp193, tmp192
	adds	r0, r0, #16	@ tmp193,
	bl	.L66		@
@ Patches/../C_code.c:700:     Proc_EndEach(RecruitmentProcCmd5);
	movs	r0, r5	@ tmp192, tmp192
	adds	r0, r0, #48	@ tmp192,
	bl	.L66		@
@ Patches/../C_code.c:897: }
	pop	{r5, r6, r7}
	mov	r10, r7
	mov	r9, r6
	mov	r8, r5
	pop	{r4, r5, r6, r7}
	pop	{r0}
	bx	r0
.L261:
	.align	2
.L260:
	.word	GetPidStats
	.word	TagValues
	.word	RandValues
	.word	HideCharPreviewExceptions+2
	.word	.LANCHOR0
	.word	Proc_EndEach
	.word	.LANCHOR1
	.size	RerollPage, .-RerollPage
	.align	1
	.p2align 2,,3
	.global	ResetPage
	.syntax unified
	.code	16
	.thumb_func
	.type	ResetPage, %function
ResetPage:
	@ Function supports interworking.
	@ args = 0, pretend = 0, frame = 0
	@ frame_needed = 0, uses_anonymous_args = 0
	push	{r4, r5, r6, r7, lr}	@
	mov	r7, r9	@,
	mov	r6, r8	@,
	mov	lr, r10	@,
@ Patches/../C_code.c:901:     int offset = proc->previewPage * NumberOfCharsPerPage;
	movs	r3, #62	@ tmp143,
@ Patches/../C_code.c:899: {
	push	{r6, r7, lr}	@
@ Patches/../C_code.c:901:     int offset = proc->previewPage * NumberOfCharsPerPage;
	ldrsb	r3, [r0, r3]	@ tmp144,
@ Patches/../C_code.c:901:     int offset = proc->previewPage * NumberOfCharsPerPage;
	lsls	r5, r3, #3	@ tmp146, tmp144,
	subs	r5, r5, r3	@ offset, tmp146, tmp144
	ldr	r3, .L273	@ tmp176,
	mov	r8, r3	@ tmp176, tmp176
@ Patches/../C_code.c:870:     if ((void *)pidStats == (void *)TagValues)
	ldr	r3, .L273+4	@ tmp181,
	mov	r9, r3	@ tmp181, tmp181
@ Patches/../C_code.c:914:         pidStats->moveAmt = id;
	movs	r3, #127	@ tmp182,
@ Patches/../C_code.c:901:     int offset = proc->previewPage * NumberOfCharsPerPage;
	movs	r6, #7	@ ivtmp_30,
@ Patches/../C_code.c:914:         pidStats->moveAmt = id;
	mov	r10, r3	@ tmp182, tmp182
	ldr	r7, .L273+8	@ tmp177,
	adds	r5, r5, #1	@ ivtmp.1185,
.L268:
@ Patches/../C_code.c:905:         id = GetReviseCharByID(offset + i);
	subs	r3, r5, #1	@ _3, ivtmp.1185,
	mov	ip, r3	@ _3, _3
@ Patches/../C_code.c:1250:     id += GetHiddenCharPreviewOffset(id + 1) + 1; // +1 because we count from 0
	subs	r4, r5, #0	@ _34, ivtmp.1185,
@ Patches/../C_code.c:1213:     for (int i = 1; i <= (charID + c); ++i)
	ble	.L264		@,
@ Patches/../C_code.c:1212:     int c = 0;
	movs	r3, #0	@ c,
@ Patches/../C_code.c:1213:     for (int i = 1; i <= (charID + c); ++i)
	movs	r1, #1	@ i,
	ldr	r4, .L273+12	@ ivtmp.1177,
.L266:
@ Patches/../C_code.c:1215:         if (HideCharPreviewExceptions[i].NeverChangeFrom)
	ldrb	r2, [r4]	@ MEM[(unsigned char *)_55], MEM[(unsigned char *)_55]
@ Patches/../C_code.c:1217:             c++;
	subs	r0, r2, #1	@ tmp180, MEM[(unsigned char *)_55]
	sbcs	r2, r2, r0	@ tmp179, MEM[(unsigned char *)_55], tmp180
	adds	r3, r3, r2	@ c, c, tmp179
@ Patches/../C_code.c:1213:     for (int i = 1; i <= (charID + c); ++i)
	adds	r1, r1, #1	@ i,
@ Patches/../C_code.c:1213:     for (int i = 1; i <= (charID + c); ++i)
	adds	r2, r5, r3	@ tmp149, ivtmp.1185, c
@ Patches/../C_code.c:1213:     for (int i = 1; i <= (charID + c); ++i)
	adds	r4, r4, #2	@ ivtmp.1177,
	cmp	r1, r2	@ i, tmp149
	ble	.L266		@,
@ Patches/../C_code.c:1250:     id += GetHiddenCharPreviewOffset(id + 1) + 1; // +1 because we count from 0
	adds	r3, r3, #1	@ tmp150,
@ Patches/../C_code.c:1250:     id += GetHiddenCharPreviewOffset(id + 1) + 1; // +1 because we count from 0
	add	r3, r3, ip	@ tmp150, _3
	movs	r4, r3	@ _34, tmp150
.L264:
@ Patches/../C_code.c:865:     struct PidStatsChar * pidStats = (struct PidStatsChar *)GetPidStats(i);
	lsls	r0, r4, #24	@ tmp152, _34,
	lsrs	r0, r0, #24	@ tmp151, tmp152,
	bl	.L67		@
@ Patches/../C_code.c:866:     if ((void *)pidStats == (void *)RandValues)
	ldr	r3, [r7]	@ RandValues, RandValues
	cmp	r0, r3	@ pidStats, RandValues
	beq	.L267		@,
@ Patches/../C_code.c:870:     if ((void *)pidStats == (void *)TagValues)
	mov	r3, r9	@ tmp181, tmp181
	ldr	r3, [r3]	@ TagValues, TagValues
@ Patches/../C_code.c:907:         if (!pidStats)
	cmp	r3, r0	@ TagValues, pidStats
	beq	.L267		@,
	cmp	r0, #0	@ pidStats,
	beq	.L267		@,
@ Patches/../C_code.c:912:         pidStats->deployAmt = 0;
	lsls	r3, r4, #6	@ tmp170, _34,
	strb	r3, [r0, #7]	@ tmp170, MEM <unsigned char> [(struct PidStatsChar *)pidStats_19 + 7B]
@ Patches/../C_code.c:914:         pidStats->moveAmt = id;
	mov	r3, r10	@ tmp182, tmp182
	asrs	r4, r4, #2	@ tmp172, _34,
	ands	r4, r3	@ tmp174, tmp182
	strb	r4, [r0, #8]	@ tmp174, MEM <unsigned char> [(struct PidStatsChar *)pidStats_19 + 8B]
.L267:
@ Patches/../C_code.c:903:     for (int i = 0; i < NumberOfCharsPerPage; ++i)
	subs	r6, r6, #1	@ ivtmp_30,
	adds	r5, r5, #1	@ ivtmp.1185,
	cmp	r6, #0	@ ivtmp_30,
	bne	.L268		@,
@ Patches/../C_code.c:916: }
	@ sp needed	@
	pop	{r5, r6, r7}
	mov	r10, r7
	mov	r9, r6
	mov	r8, r5
	pop	{r4, r5, r6, r7}
	pop	{r0}
	bx	r0
.L274:
	.align	2
.L273:
	.word	GetPidStats
	.word	TagValues
	.word	RandValues
	.word	HideCharPreviewExceptions+2
	.size	ResetPage, .-ResetPage
	.align	1
	.p2align 2,,3
	.global	SetAllCharConfirm
	.syntax unified
	.code	16
	.thumb_func
	.type	SetAllCharConfirm, %function
SetAllCharConfirm:
	@ Function supports interworking.
	@ args = 0, pretend = 0, frame = 0
	@ frame_needed = 0, uses_anonymous_args = 0
	push	{r4, r5, r6, r7, lr}	@
	mov	lr, r10	@,
	mov	r6, r8	@,
	mov	r7, r9	@,
@ Patches/../C_code.c:865:     struct PidStatsChar * pidStats = (struct PidStatsChar *)GetPidStats(i);
	movs	r0, #1	@,
@ Patches/../C_code.c:919: {
	push	{r6, r7, lr}	@
@ Patches/../C_code.c:865:     struct PidStatsChar * pidStats = (struct PidStatsChar *)GetPidStats(i);
	ldr	r5, .L280	@ tmp237,
	bl	.L25		@
@ Patches/../C_code.c:866:     if ((void *)pidStats == (void *)RandValues)
	ldr	r6, .L280+4	@ tmp238,
@ Patches/../C_code.c:866:     if ((void *)pidStats == (void *)RandValues)
	ldr	r3, [r6]	@ RandValues, RandValues
	cmp	r0, r3	@ pidStats, RandValues
	beq	.L275		@,
@ Patches/../C_code.c:870:     if ((void *)pidStats == (void *)TagValues)
	ldr	r7, .L280+8	@ tmp239,
@ Patches/../C_code.c:870:     if ((void *)pidStats == (void *)TagValues)
	ldr	r3, [r7]	@ TagValues, TagValues
@ Patches/../C_code.c:921:     if (!pidStats)
	cmp	r3, r0	@ TagValues, pidStats
	beq	.L275		@,
	cmp	r0, #0	@ pidStats,
	beq	.L275		@,
@ Patches/../C_code.c:925:     int id = pidStats->moveAmt;
	movs	r3, #127	@ tmp153,
	ldrb	r2, [r0, #7]	@ *pidStats_17, *pidStats_17
	ldrb	r0, [r0, #8]	@ *pidStats_17, *pidStats_17
	ands	r3, r0	@ tmp154, *pidStats_17
	lsrs	r1, r2, #6	@ tmp150, *pidStats_17,
	lsls	r3, r3, #2	@ tmp155, tmp154,
@ Patches/../C_code.c:938:         pidStats->moveAmt = id;
	orrs	r3, r1	@ tmp155, tmp150
@ Patches/../C_code.c:926:     int game = pidStats->deployAmt;
	lsls	r2, r2, #26	@ tmp162, *pidStats_17,
@ Patches/../C_code.c:938:         pidStats->moveAmt = id;
	mov	r8, r3	@ _1, tmp155
@ Patches/../C_code.c:926:     int game = pidStats->deployAmt;
	lsrs	r2, r2, #26	@ _2, tmp162,
@ Patches/../C_code.c:938:         pidStats->moveAmt = id;
	lsls	r3, r1, #6	@ tmp242, tmp150,
@ Patches/../C_code.c:926:     int game = pidStats->deployAmt;
	mov	r9, r2	@ _2, _2
@ Patches/../C_code.c:927:     for (int i = 2; i <= 0x45; ++i)
	movs	r4, #2	@ i,
@ Patches/../C_code.c:938:         pidStats->moveAmt = id;
	mov	r10, r3	@ tmp242, tmp242
.L278:
@ Patches/../C_code.c:865:     struct PidStatsChar * pidStats = (struct PidStatsChar *)GetPidStats(i);
	lsls	r0, r4, #24	@ tmp165, i,
	lsrs	r0, r0, #24	@ tmp164, tmp165,
	bl	.L25		@
@ Patches/../C_code.c:866:     if ((void *)pidStats == (void *)RandValues)
	ldr	r3, [r6]	@ RandValues, RandValues
	cmp	r0, r3	@ pidStats, RandValues
	beq	.L277		@,
@ Patches/../C_code.c:870:     if ((void *)pidStats == (void *)TagValues)
	ldr	r3, [r7]	@ TagValues, TagValues
@ Patches/../C_code.c:931:         if (!pidStats)
	cmp	r3, r0	@ TagValues, pidStats
	beq	.L277		@,
	cmp	r0, #0	@ pidStats,
	beq	.L277		@,
@ Patches/../C_code.c:938:         pidStats->moveAmt = id;
	mov	r3, r9	@ tmp217, _2
	mov	r2, r10	@ tmp242, tmp242
	orrs	r3, r2	@ tmp217, tmp242
	strb	r3, [r0, #7]	@ tmp217, pidStats_22->moveAmt
	mov	r3, r8	@ _1, _1
	lsrs	r3, r3, #2	@ tmp235, _1,
	strb	r3, [r0, #8]	@ tmp235, pidStats_22->moveAmt
.L277:
@ Patches/../C_code.c:927:     for (int i = 2; i <= 0x45; ++i)
	adds	r4, r4, #1	@ i,
@ Patches/../C_code.c:927:     for (int i = 2; i <= 0x45; ++i)
	cmp	r4, #70	@ i,
	bne	.L278		@,
.L275:
@ Patches/../C_code.c:940: }
	@ sp needed	@
	pop	{r5, r6, r7}
	mov	r10, r7
	mov	r9, r6
	mov	r8, r5
	pop	{r4, r5, r6, r7}
	pop	{r0}
	bx	r0
.L281:
	.align	2
.L280:
	.word	GetPidStats
	.word	RandValues
	.word	TagValues
	.size	SetAllCharConfirm, .-SetAllCharConfirm
	.align	1
	.p2align 2,,3
	.global	UnpackFaceChibiGraphics_Bulk
	.syntax unified
	.code	16
	.thumb_func
	.type	UnpackFaceChibiGraphics_Bulk, %function
UnpackFaceChibiGraphics_Bulk:
	@ Function supports interworking.
	@ args = 0, pretend = 0, frame = 512
	@ frame_needed = 0, uses_anonymous_args = 0
	push	{r4, r5, r6, r7, lr}	@
	ldr	r4, .L283	@,
@ Patches/../C_code.c:1154:     const struct FaceData * info = GetPortraitData(fid);
	ldr	r3, .L283+4	@ tmp130,
@ Patches/../C_code.c:1153: {
	add	sp, sp, r4	@,
@ Patches/../C_code.c:1153: {
	movs	r5, r2	@ pal, tmp154
	movs	r4, r1	@ chr, tmp153
@ Patches/../C_code.c:1154:     const struct FaceData * info = GetPortraitData(fid);
	bl	.L24		@
@ Patches/../C_code.c:1160:     Decompress(info->imgChibi, buffer);
	mov	r1, sp	@,
@ Patches/../C_code.c:1154:     const struct FaceData * info = GetPortraitData(fid);
	movs	r6, r0	@ info, tmp155
@ Patches/../C_code.c:1160:     Decompress(info->imgChibi, buffer);
	ldr	r3, .L283+8	@ tmp133,
	ldr	r0, [r0, #4]	@ info_19->imgChibi, info_19->imgChibi
	bl	.L24		@
@ Patches/../C_code.c:1161:     CpuFastCopy(buffer + 0x00, (void *)(chr * CHR_SIZE + VRAM), 0x80);
	movs	r3, #192	@ tmp157,
	lsls	r3, r3, #14	@ tmp157, tmp157,
	mov	ip, r3	@ tmp157, tmp157
	add	r4, r4, ip	@ tmp134, tmp157
	lsls	r4, r4, #5	@ _3, tmp134,
	ldr	r7, .L283+12	@ tmp136,
	movs	r1, r4	@, _3
	mov	r0, sp	@,
	movs	r2, #32	@,
	bl	.L68		@
@ Patches/../C_code.c:1162:     CpuFastCopy(buffer + 0x80, (void *)((chr + 0x04) * CHR_SIZE + VRAM), 0x80);
	movs	r1, r4	@ tmp137, _3
	add	r0, sp, #128	@,,
	movs	r2, #32	@,
	adds	r1, r1, #128	@ tmp137,
	bl	.L68		@
@ Patches/../C_code.c:1163:     CpuFastCopy(buffer + 0x100, (void *)((chr + 0x08) * CHR_SIZE + VRAM), 0x80);
	adds	r1, r4, #1	@ tmp141, _3,
	add	r0, sp, #256	@,,
	movs	r2, #32	@,
	adds	r1, r1, #255	@ tmp141,
	bl	.L68		@
@ Patches/../C_code.c:1164:     CpuFastCopy(buffer + 0x180, (void *)((chr + 0x0C) * CHR_SIZE + VRAM), 0x80);
	movs	r1, r4	@ _3, _3
	adds	r1, r1, #129	@ _3,
	add	r0, sp, #384	@,,
	movs	r2, #32	@,
	adds	r1, r1, #255	@ _3,
	bl	.L68		@
@ Patches/../C_code.c:1166:     ApplyPalette(info->pal, pal);
	movs	r2, #32	@,
	ldr	r0, [r6, #8]	@ info_19->pal, info_19->pal
	ldr	r3, .L283+16	@ tmp151,
	lsls	r1, r5, #5	@ tmp149, pal,
	bl	.L24		@
@ Patches/../C_code.c:1167: }
	movs	r3, #129	@,
	lsls	r3, r3, #2	@,,
	add	sp, sp, r3	@,
	@ sp needed	@
	pop	{r4, r5, r6, r7}
	pop	{r0}
	bx	r0
.L284:
	.align	2
.L283:
	.word	-516
	.word	GetPortraitData
	.word	Decompress
	.word	CpuFastSet
	.word	CopyToPaletteBuffer
	.size	UnpackFaceChibiGraphics_Bulk, .-UnpackFaceChibiGraphics_Bulk
	.align	1
	.p2align 2,,3
	.global	PutFaceChibi_Bulk
	.syntax unified
	.code	16
	.thumb_func
	.type	PutFaceChibi_Bulk, %function
PutFaceChibi_Bulk:
	@ Function supports interworking.
	@ args = 4, pretend = 0, frame = 0
	@ frame_needed = 0, uses_anonymous_args = 0
	push	{r3, r4, r5, r6, r7, lr}	@
@ Patches/../C_code.c:1174: {
	movs	r5, r2	@ chr, tmp133
@ Patches/../C_code.c:1185: }
	@ sp needed	@
@ Patches/../C_code.c:1174: {
	movs	r4, r3	@ pal, tmp134
	movs	r7, #0	@ isFlipped,
	movs	r6, r1	@ tm, tmp132
	add	r3, sp, #24	@ tmp123,,
@ Patches/../C_code.c:1175:     UnpackFaceChibiGraphics_Bulk(fid, chr, pal);
	movs	r2, r4	@, pal
	movs	r1, r5	@, chr
@ Patches/../C_code.c:1174: {
	ldrsb	r7, [r3, r7]	@ isFlipped,* isFlipped
@ Patches/../C_code.c:1177:     chr &= 0x3FF;
	lsls	r5, r5, #22	@ tmp126, chr,
@ Patches/../C_code.c:1175:     UnpackFaceChibiGraphics_Bulk(fid, chr, pal);
	bl	UnpackFaceChibiGraphics_Bulk		@
@ Patches/../C_code.c:1179:     PutFaceTm(tm, (void *)sUnknown_085911C4, TILEREF(chr, pal), isFlipped);
	ldr	r3, .L286	@ tmp128,
@ Patches/../C_code.c:1177:     chr &= 0x3FF;
	lsrs	r5, r5, #22	@ chr, tmp126,
@ Patches/../C_code.c:1179:     PutFaceTm(tm, (void *)sUnknown_085911C4, TILEREF(chr, pal), isFlipped);
	lsls	r4, r4, #12	@ tmp124, pal,
@ Patches/../C_code.c:1179:     PutFaceTm(tm, (void *)sUnknown_085911C4, TILEREF(chr, pal), isFlipped);
	adds	r2, r4, r5	@ tmp127, tmp124, chr
	movs	r0, r6	@, tm
	ldr	r1, [r3]	@ sUnknown_085911C4, sUnknown_085911C4
	ldr	r4, .L286+4	@ tmp130,
	movs	r3, r7	@, isFlipped
	bl	.L66		@
@ Patches/../C_code.c:1185: }
	pop	{r3, r4, r5, r6, r7}
	pop	{r0}
	bx	r0
.L287:
	.align	2
.L286:
	.word	sUnknown_085911C4
	.word	PutFaceTm
	.size	PutFaceChibi_Bulk, .-PutFaceChibi_Bulk
	.align	1
	.p2align 2,,3
	.global	GetHiddenCharPreviewOffset
	.syntax unified
	.code	16
	.thumb_func
	.type	GetHiddenCharPreviewOffset, %function
GetHiddenCharPreviewOffset:
	@ Function supports interworking.
	@ args = 0, pretend = 0, frame = 0
	@ frame_needed = 0, uses_anonymous_args = 0
	push	{r4, r5, lr}	@
@ Patches/../C_code.c:1211: {
	subs	r4, r0, #0	@ charID, tmp127,
@ Patches/../C_code.c:1213:     for (int i = 1; i <= (charID + c); ++i)
	ble	.L292		@,
@ Patches/../C_code.c:1213:     for (int i = 1; i <= (charID + c); ++i)
	movs	r2, #1	@ i,
@ Patches/../C_code.c:1212:     int c = 0;
	movs	r0, #0	@ <retval>,
	ldr	r1, .L296	@ ivtmp.1213,
.L291:
@ Patches/../C_code.c:1215:         if (HideCharPreviewExceptions[i].NeverChangeFrom)
	ldrb	r3, [r1]	@ MEM[(unsigned char *)_4], MEM[(unsigned char *)_4]
@ Patches/../C_code.c:1217:             c++;
	subs	r5, r3, #1	@ tmp126, MEM[(unsigned char *)_4]
	sbcs	r3, r3, r5	@ tmp125, MEM[(unsigned char *)_4], tmp126
	adds	r0, r0, r3	@ <retval>, <retval>, tmp125
@ Patches/../C_code.c:1213:     for (int i = 1; i <= (charID + c); ++i)
	adds	r2, r2, #1	@ i,
@ Patches/../C_code.c:1213:     for (int i = 1; i <= (charID + c); ++i)
	adds	r3, r4, r0	@ tmp122, charID, <retval>
@ Patches/../C_code.c:1213:     for (int i = 1; i <= (charID + c); ++i)
	adds	r1, r1, #2	@ ivtmp.1213,
	cmp	r2, r3	@ i, tmp122
	ble	.L291		@,
.L288:
@ Patches/../C_code.c:1221: }
	@ sp needed	@
	pop	{r4, r5}
	pop	{r1}
	bx	r1
.L292:
@ Patches/../C_code.c:1212:     int c = 0;
	movs	r0, #0	@ <retval>,
@ Patches/../C_code.c:1220:     return c;
	b	.L288		@
.L297:
	.align	2
.L296:
	.word	HideCharPreviewExceptions+2
	.size	GetHiddenCharPreviewOffset, .-GetHiddenCharPreviewOffset
	.align	1
	.p2align 2,,3
	.global	GetReviseCharByID
	.syntax unified
	.code	16
	.thumb_func
	.type	GetReviseCharByID, %function
GetReviseCharByID:
	@ Function supports interworking.
	@ args = 0, pretend = 0, frame = 0
	@ frame_needed = 0, uses_anonymous_args = 0
	push	{r4, r5, r6, lr}	@
@ Patches/../C_code.c:1245: {
	movs	r6, r0	@ id, tmp130
@ Patches/../C_code.c:1250:     id += GetHiddenCharPreviewOffset(id + 1) + 1; // +1 because we count from 0
	adds	r0, r0, #1	@ <retval>,
@ Patches/../C_code.c:1213:     for (int i = 1; i <= (charID + c); ++i)
	cmp	r0, #0	@ <retval>,
	ble	.L298		@,
@ Patches/../C_code.c:1212:     int c = 0;
	movs	r2, #0	@ c,
@ Patches/../C_code.c:1213:     for (int i = 1; i <= (charID + c); ++i)
	movs	r1, #1	@ i,
	ldr	r4, .L305	@ ivtmp.1224,
.L301:
@ Patches/../C_code.c:1215:         if (HideCharPreviewExceptions[i].NeverChangeFrom)
	ldrb	r3, [r4]	@ MEM[(unsigned char *)_15], MEM[(unsigned char *)_15]
@ Patches/../C_code.c:1217:             c++;
	subs	r5, r3, #1	@ tmp129, MEM[(unsigned char *)_15]
	sbcs	r3, r3, r5	@ tmp128, MEM[(unsigned char *)_15], tmp129
	adds	r2, r2, r3	@ c, c, tmp128
@ Patches/../C_code.c:1213:     for (int i = 1; i <= (charID + c); ++i)
	adds	r1, r1, #1	@ i,
@ Patches/../C_code.c:1213:     for (int i = 1; i <= (charID + c); ++i)
	adds	r3, r0, r2	@ tmp124, <retval>, c
@ Patches/../C_code.c:1213:     for (int i = 1; i <= (charID + c); ++i)
	adds	r4, r4, #2	@ ivtmp.1224,
	cmp	r1, r3	@ i, tmp124
	ble	.L301		@,
@ Patches/../C_code.c:1250:     id += GetHiddenCharPreviewOffset(id + 1) + 1; // +1 because we count from 0
	adds	r2, r2, #1	@ tmp125,
@ Patches/../C_code.c:1250:     id += GetHiddenCharPreviewOffset(id + 1) + 1; // +1 because we count from 0
	adds	r0, r2, r6	@ <retval>, tmp125, id
.L298:
@ Patches/../C_code.c:1252: }
	@ sp needed	@
	pop	{r4, r5, r6}
	pop	{r1}
	bx	r1
.L306:
	.align	2
.L305:
	.word	HideCharPreviewExceptions+2
	.size	GetReviseCharByID, .-GetReviseCharByID
	.section	.rodata.str1.4
	.align	2
.LC115:
	.ascii	"\001\005\002\006\004\004\003\007\004\010\004\000"
	.text
	.align	1
	.p2align 2,,3
	.global	GetReviseCharID
	.syntax unified
	.code	16
	.thumb_func
	.type	GetReviseCharID, %function
GetReviseCharID:
	@ Function supports interworking.
	@ args = 0, pretend = 0, frame = 16
	@ frame_needed = 0, uses_anonymous_args = 0
	push	{r4, r5, lr}	@
	sub	sp, sp, #20	@,,
@ Patches/../C_code.c:1256:     u8 base_charID[11] = { 1, 5, 2, 6, 4, 4, 3, 7, 4, 8, 4 }; // because of menu options ordering lol
	add	r2, sp, #4	@ tmp129,,
	movs	r1, r2	@ tmp131, tmp129
	ldr	r3, .L315	@ tmp130,
	ldmia	r3!, {r4, r5}	@ tmp132, tmp153, tmp154
	stmia	r1!, {r4, r5}	@ tmp131, tmp153, tmp154
	ldrh	r4, [r3]	@ tmp134,
	strh	r4, [r1]	@ tmp134,
	ldrb	r3, [r3, #2]	@ tmp136,
	strb	r3, [r1, #2]	@ tmp136,
@ Patches/../C_code.c:1257:     int charID = base_charID[proc->previewId] + proc->previewPage * NumberOfCharsPerPage;
	movs	r3, #63	@ tmp139,
	ldrsb	r3, [r0, r3]	@ tmp140,
@ Patches/../C_code.c:1257:     int charID = base_charID[proc->previewId] + proc->previewPage * NumberOfCharsPerPage;
	ldrb	r5, [r2, r3]	@ tmp141, base_charID
@ Patches/../C_code.c:1257:     int charID = base_charID[proc->previewId] + proc->previewPage * NumberOfCharsPerPage;
	movs	r3, #62	@ tmp142,
	ldrsb	r2, [r0, r3]	@ tmp143,
@ Patches/../C_code.c:1257:     int charID = base_charID[proc->previewId] + proc->previewPage * NumberOfCharsPerPage;
	lsls	r3, r2, #3	@ tmp145, tmp143,
	subs	r3, r3, r2	@ tmp146, tmp145, tmp143
@ Patches/../C_code.c:1257:     int charID = base_charID[proc->previewId] + proc->previewPage * NumberOfCharsPerPage;
	adds	r5, r5, r3	@ charID, tmp141, tmp146
@ Patches/../C_code.c:1213:     for (int i = 1; i <= (charID + c); ++i)
	cmp	r5, #0	@ charID,
	ble	.L311		@,
@ Patches/../C_code.c:1212:     int c = 0;
	movs	r1, #0	@ c,
@ Patches/../C_code.c:1213:     for (int i = 1; i <= (charID + c); ++i)
	movs	r2, #1	@ i,
	ldr	r4, .L315+4	@ ivtmp.1235,
.L310:
@ Patches/../C_code.c:1215:         if (HideCharPreviewExceptions[i].NeverChangeFrom)
	ldrb	r3, [r4]	@ MEM[(unsigned char *)_12], MEM[(unsigned char *)_12]
@ Patches/../C_code.c:1217:             c++;
	subs	r0, r3, #1	@ tmp151, MEM[(unsigned char *)_12]
	sbcs	r3, r3, r0	@ tmp150, MEM[(unsigned char *)_12], tmp151
	adds	r1, r1, r3	@ c, c, tmp150
@ Patches/../C_code.c:1213:     for (int i = 1; i <= (charID + c); ++i)
	adds	r2, r2, #1	@ i,
@ Patches/../C_code.c:1213:     for (int i = 1; i <= (charID + c); ++i)
	adds	r0, r5, r1	@ <retval>, charID, c
@ Patches/../C_code.c:1213:     for (int i = 1; i <= (charID + c); ++i)
	adds	r4, r4, #2	@ ivtmp.1235,
	cmp	r2, r0	@ i, <retval>
	ble	.L310		@,
.L307:
@ Patches/../C_code.c:1260: }
	add	sp, sp, #20	@,,
	@ sp needed	@
	pop	{r4, r5}
	pop	{r1}
	bx	r1
.L311:
@ Patches/../C_code.c:1213:     for (int i = 1; i <= (charID + c); ++i)
	movs	r0, r5	@ <retval>, charID
@ Patches/../C_code.c:1259:     return charID;
	b	.L307		@
.L316:
	.align	2
.L315:
	.word	.LC115
	.word	HideCharPreviewExceptions+2
	.size	GetReviseCharID, .-GetReviseCharID
	.align	1
	.p2align 2,,3
	.global	ReviseRandomizedCharacter
	.syntax unified
	.code	16
	.thumb_func
	.type	ReviseRandomizedCharacter, %function
ReviseRandomizedCharacter:
	@ Function supports interworking.
	@ args = 0, pretend = 0, frame = 0
	@ frame_needed = 0, uses_anonymous_args = 0
	push	{r4, lr}	@
@ Patches/../C_code.c:969: {
	movs	r4, r0	@ proc, tmp120
@ Patches/../C_code.c:970:     if (GetReviseCharID(proc) <= MaxCharPreviewID)
	bl	GetReviseCharID		@
@ Patches/../C_code.c:970:     if (GetReviseCharID(proc) <= MaxCharPreviewID)
	ldr	r3, .L320	@ tmp117,
@ Patches/../C_code.c:970:     if (GetReviseCharID(proc) <= MaxCharPreviewID)
	ldr	r3, [r3]	@ MaxCharPreviewID, MaxCharPreviewID
	cmp	r0, r3	@ tmp121, MaxCharPreviewID
	ble	.L319		@,
.L317:
@ Patches/../C_code.c:974: }
	@ sp needed	@
	pop	{r4}
	pop	{r0}
	bx	r0
.L319:
@ Patches/../C_code.c:972:         Proc_Goto(proc, ReviseCharProcLabel);
	movs	r1, #3	@,
	movs	r0, r4	@, proc
	ldr	r3, .L320+4	@ tmp119,
	bl	.L24		@
@ Patches/../C_code.c:974: }
	b	.L317		@
.L321:
	.align	2
.L320:
	.word	MaxCharPreviewID
	.word	Proc_Goto
	.size	ReviseRandomizedCharacter, .-ReviseRandomizedCharacter
	.align	1
	.p2align 2,,3
	.global	BG_GetMapBuffer
	.syntax unified
	.code	16
	.thumb_func
	.type	BG_GetMapBuffer, %function
BG_GetMapBuffer:
	@ Function supports interworking.
	@ args = 0, pretend = 0, frame = 0
	@ frame_needed = 0, uses_anonymous_args = 0
	@ link register save eliminated.
@ Patches/../C_code.c:1342:     if (bg > 3)
	cmp	r0, #3	@ bg,
	bgt	.L324		@,
@ Patches/../C_code.c:1346:     return BgTilemapBuffers[bg];
	ldr	r3, .L325	@ tmp116,
	lsls	r0, r0, #2	@ tmp117, bg,
	adds	r3, r3, r0	@ tmp118, tmp116, tmp117
	ldr	r0, [r3, #80]	@ <retval>, BgTilemapBuffers[bg_2(D)]
.L322:
@ Patches/../C_code.c:1347: }
	@ sp needed	@
	bx	lr
.L324:
	ldr	r0, .L325+4	@ <retval>,
@ Patches/../C_code.c:1346:     return BgTilemapBuffers[bg];
	b	.L322		@
.L326:
	.align	2
.L325:
	.word	.LANCHOR1
	.word	gBG0TilemapBuffer
	.size	BG_GetMapBuffer, .-BG_GetMapBuffer
	.align	1
	.p2align 2,,3
	.global	GetUnitIdOfPortrait
	.syntax unified
	.code	16
	.thumb_func
	.type	GetUnitIdOfPortrait, %function
GetUnitIdOfPortrait:
	@ Function supports interworking.
	@ args = 0, pretend = 0, frame = 0
	@ frame_needed = 0, uses_anonymous_args = 0
	push	{r3, r4, r5, r6, r7, lr}	@
@ Patches/../C_code.c:1727: {
	movs	r5, r0	@ portraitID, tmp129
@ Patches/../C_code.c:1728:     if (portraitID < 0x100) // vanilla closed eyes etc portraits to replace
	cmp	r0, #255	@ portraitID,
	bgt	.L328		@,
@ Patches/../C_code.c:1730:         if (ReplacePortraitTable[portraitID])
	ldr	r3, .L338	@ tmp122,
	ldrb	r3, [r3, r0]	@ _1, ReplacePortraitTable
@ Patches/../C_code.c:1730:         if (ReplacePortraitTable[portraitID])
	cmp	r3, #0	@ _1,
	bne	.L336		@,
.L328:
@ Patches/../C_code.c:1739:     for (int i = 1; i <= MAX_CHAR_ID; i++)
	movs	r7, #128	@ tmp128,
@ Patches/../C_code.c:1739:     for (int i = 1; i <= MAX_CHAR_ID; i++)
	movs	r4, #1	@ i,
	ldr	r6, .L338+4	@ tmp127,
@ Patches/../C_code.c:1739:     for (int i = 1; i <= MAX_CHAR_ID; i++)
	lsls	r7, r7, #1	@ tmp128, tmp128,
	b	.L331		@
.L329:
@ Patches/../C_code.c:1739:     for (int i = 1; i <= MAX_CHAR_ID; i++)
	adds	r4, r4, #1	@ i,
@ Patches/../C_code.c:1739:     for (int i = 1; i <= MAX_CHAR_ID; i++)
	cmp	r4, r7	@ i, tmp128
	beq	.L337		@,
.L331:
@ Patches/../C_code.c:1741:         table = GetCharacterData(i);
	movs	r0, r4	@, i
	bl	.L161		@
@ Patches/../C_code.c:1742:         if (table->portraitId == portraitID)
	ldrh	r3, [r0, #6]	@ tmp124,
@ Patches/../C_code.c:1742:         if (table->portraitId == portraitID)
	cmp	r3, r5	@ tmp124, portraitID
	bne	.L329		@,
@ Patches/../C_code.c:1744:             return table->number;
	ldrb	r0, [r0, #4]	@ <retval>,
.L327:
@ Patches/../C_code.c:1752: }
	@ sp needed	@
	pop	{r3, r4, r5, r6, r7}
	pop	{r1}
	bx	r1
.L336:
@ Patches/../C_code.c:1732:             portraitID = ReplacePortraitTable[portraitID];
	movs	r5, r3	@ portraitID, _1
	b	.L328		@
.L337:
@ Patches/../C_code.c:1751:     return 0;
	movs	r0, #0	@ <retval>,
	b	.L327		@
.L339:
	.align	2
.L338:
	.word	ReplacePortraitTable
	.word	GetCharacterData
	.size	GetUnitIdOfPortrait, .-GetUnitIdOfPortrait
	.align	1
	.p2align 2,,3
	.global	ClearPlayerBWL
	.syntax unified
	.code	16
	.thumb_func
	.type	ClearPlayerBWL, %function
ClearPlayerBWL:
	@ Function supports interworking.
	@ args = 0, pretend = 0, frame = 0
	@ frame_needed = 0, uses_anonymous_args = 0
@ Patches/../C_code.c:1760:     if (!CharConfirmPage)
	ldr	r3, .L345	@ tmp115,
@ Patches/../C_code.c:1760:     if (!CharConfirmPage)
	ldr	r3, [r3]	@ CharConfirmPage, CharConfirmPage
@ Patches/../C_code.c:1759: {
	push	{r4, lr}	@
@ Patches/../C_code.c:1760:     if (!CharConfirmPage)
	cmp	r3, #0	@ CharConfirmPage,
	beq	.L340		@,
	bl	ClearPlayerBWL.part.0		@
.L340:
@ Patches/../C_code.c:1780: }
	@ sp needed	@
	pop	{r4}
	pop	{r0}
	bx	r0
.L346:
	.align	2
.L345:
	.word	CharConfirmPage
	.size	ClearPlayerBWL, .-ClearPlayerBWL
	.align	1
	.p2align 2,,3
	.global	CanCharacterBecomeBoss
	.syntax unified
	.code	16
	.thumb_func
	.type	CanCharacterBecomeBoss, %function
CanCharacterBecomeBoss:
	@ Function supports interworking.
	@ args = 0, pretend = 0, frame = 0
	@ frame_needed = 0, uses_anonymous_args = 0
	@ link register save eliminated.
	movs	r2, #128	@ tmp125,
	ldr	r3, [r0, #40]	@ table_7(D)->attributes, table_7(D)->attributes
	lsls	r2, r2, #8	@ tmp125, tmp125,
	ands	r2, r3	@ _8, table_7(D)->attributes
@ Patches/../C_code.c:1976:     if ((RecruitValues->recruitment == 5))
	ldr	r3, .L350	@ tmp127,
	ldr	r3, [r3]	@ RecruitValues, RecruitValues
	ldrb	r1, [r3]	@ *RecruitValues.56_2, *RecruitValues.56_2
	movs	r3, #7	@ tmp133,
	ands	r3, r1	@ _4, *RecruitValues.56_2
@ Patches/../C_code.c:1976:     if ((RecruitValues->recruitment == 5))
	cmp	r3, #5	@ _4,
	beq	.L349		@,
@ Patches/../C_code.c:1980:     if ((!boss) && (RecruitValues->recruitment == 4))
	subs	r0, r3, #4	@ tmp137, _4,
	rsbs	r3, r0, #0	@ tmp138, tmp137
	adcs	r0, r0, r3	@ tmp136, tmp137, tmp138
@ Patches/../C_code.c:1980:     if ((!boss) && (RecruitValues->recruitment == 4))
	movs	r3, r2	@ _8, _8
	subs	r2, r3, #1	@ tmp141, _8
	sbcs	r3, r3, r2	@ _8, _8, tmp141
@ Patches/../C_code.c:1980:     if ((!boss) && (RecruitValues->recruitment == 4))
	orrs	r0, r3	@ <retval>, tmp140
.L347:
@ Patches/../C_code.c:1989: }
	@ sp needed	@
	bx	lr
.L349:
@ Patches/../C_code.c:1978:         return false;
	movs	r0, #0	@ <retval>,
	b	.L347		@
.L351:
	.align	2
.L350:
	.word	RecruitValues
	.size	CanCharacterBecomeBoss, .-CanCharacterBecomeBoss
	.align	1
	.p2align 2,,3
	.global	MustCharacterBecomeBoss
	.syntax unified
	.code	16
	.thumb_func
	.type	MustCharacterBecomeBoss, %function
MustCharacterBecomeBoss:
	@ Function supports interworking.
	@ args = 0, pretend = 0, frame = 0
	@ frame_needed = 0, uses_anonymous_args = 0
	@ link register save eliminated.
@ Patches/../C_code.c:1994:     if ((RecruitValues->recruitment == 5))
	ldr	r3, .L353	@ tmp126,
@ Patches/../C_code.c:2006: }
	@ sp needed	@
@ Patches/../C_code.c:1994:     if ((RecruitValues->recruitment == 5))
	ldr	r3, [r3]	@ RecruitValues, RecruitValues
	ldrb	r2, [r3]	@ *RecruitValues.58_2, *RecruitValues.58_2
@ Patches/../C_code.c:1994:     if ((RecruitValues->recruitment == 5))
	movs	r3, #7	@ tmp132,
	ands	r3, r2	@ tmp134, *RecruitValues.58_2
	subs	r3, r3, #5	@ tmp137,
	subs	r2, r3, #1	@ tmp138, tmp137
	sbcs	r3, r3, r2	@ tmp136, tmp137, tmp138
@ Patches/../C_code.c:2001:     if (boss)
	ldr	r0, [r0, #40]	@ table_7(D)->attributes, table_7(D)->attributes
	lsrs	r0, r0, #15	@ tmp144, table_7(D)->attributes,
	ands	r0, r3	@ tmp124, tmp136
@ Patches/../C_code.c:2006: }
	bx	lr
.L354:
	.align	2
.L353:
	.word	RecruitValues
	.size	MustCharacterBecomeBoss, .-MustCharacterBecomeBoss
	.align	1
	.p2align 2,,3
	.global	GetAdjustedCharacterID
	.syntax unified
	.code	16
	.thumb_func
	.type	GetAdjustedCharacterID, %function
GetAdjustedCharacterID:
	@ Function supports interworking.
	@ args = 0, pretend = 0, frame = 0
	@ frame_needed = 0, uses_anonymous_args = 0
	push	{r4, r5, r6, lr}	@
@ Patches/../C_code.c:2010:     int portraitID = table->portraitId;
	ldrh	r4, [r0, #6]	@ _1,
@ Patches/../C_code.c:2009: {
	movs	r5, r0	@ table, tmp128
@ Patches/../C_code.c:2011:     if (!portraitID)
	cmp	r4, #0	@ _1,
	bne	.L356		@,
.L364:
@ Patches/../C_code.c:2042:     return table->number;
	ldrb	r0, [r5, #4]	@ <retval>,
.L355:
@ Patches/../C_code.c:2043: }
	@ sp needed	@
	pop	{r4, r5, r6}
	pop	{r1}
	bx	r1
.L356:
@ Patches/../C_code.c:2015:     const struct CharacterData * table2 = GetCharacterData(1);
	ldr	r3, .L365	@ tmp124,
	movs	r0, #1	@,
	bl	.L24		@
	ldr	r3, .L365+4	@ tmp131,
	adds	r1, r0, r3	@ _23, table2, tmp131
	b	.L359		@
.L358:
@ Patches/../C_code.c:2022:         table2++;
	adds	r0, r0, #52	@ table2,
@ Patches/../C_code.c:2016:     for (int i = 0; i < MAX_CHAR_ID; ++i)
	cmp	r0, r1	@ table2, _23
	beq	.L364		@,
.L359:
@ Patches/../C_code.c:2018:         if ((portraitID == table2->portraitId) && (table2->pSupportData))
	ldrh	r2, [r0, #6]	@ MEM[(short unsigned int *)table2_22 + 6B], MEM[(short unsigned int *)table2_22 + 6B]
	cmp	r2, r4	@ MEM[(short unsigned int *)table2_22 + 6B], _1
	bne	.L358		@,
@ Patches/../C_code.c:2018:         if ((portraitID == table2->portraitId) && (table2->pSupportData))
	ldr	r2, [r0, #44]	@ MEM[(long unsigned int *)table2_22 + 44B], MEM[(long unsigned int *)table2_22 + 44B]
	cmp	r2, #0	@ MEM[(long unsigned int *)table2_22 + 44B],
	beq	.L358		@,
@ Patches/../C_code.c:2020:             return table2->number;
	ldrb	r0, [r0, #4]	@ <retval>,
	b	.L355		@
.L366:
	.align	2
.L365:
	.word	GetCharacterData
	.word	13260
	.size	GetAdjustedCharacterID, .-GetAdjustedCharacterID
	.align	1
	.p2align 2,,3
	.global	CopyBWLForCharDuplicates
	.syntax unified
	.code	16
	.thumb_func
	.type	CopyBWLForCharDuplicates, %function
CopyBWLForCharDuplicates:
	@ Function supports interworking.
	@ args = 0, pretend = 0, frame = 0
	@ frame_needed = 0, uses_anonymous_args = 0
	push	{r3, r4, r5, r6, r7, lr}	@
	mov	r7, r10	@,
	mov	r5, r8	@,
	mov	r6, r9	@,
	mov	lr, fp	@,
@ Patches/../C_code.c:865:     struct PidStatsChar * pidStats = (struct PidStatsChar *)GetPidStats(i);
	ldr	r3, .L382	@ tmp242,
	mov	r9, r3	@ tmp242, tmp242
@ Patches/../C_code.c:866:     if ((void *)pidStats == (void *)RandValues)
	ldr	r3, .L382+4	@ tmp243,
	mov	r8, r3	@ tmp243, tmp243
@ Patches/../C_code.c:870:     if ((void *)pidStats == (void *)TagValues)
	ldr	r3, .L382+8	@ tmp244,
@ Patches/../C_code.c:944: {
	push	{r5, r6, r7, lr}	@
@ Patches/../C_code.c:870:     if ((void *)pidStats == (void *)TagValues)
	mov	r10, r3	@ tmp244, tmp244
@ Patches/../C_code.c:950:     for (int i = 1; i <= 0x45; ++i)
	movs	r5, #1	@ i,
	ldr	r7, .L382+12	@ tmp235,
	b	.L373		@
.L381:
@ Patches/../C_code.c:870:     if ((void *)pidStats == (void *)TagValues)
	ldr	r3, .L382+8	@ tmp152,
@ Patches/../C_code.c:870:     if ((void *)pidStats == (void *)TagValues)
	ldr	r3, [r3]	@ TagValues, TagValues
@ Patches/../C_code.c:868:         return NULL;
	subs	r3, r0, r3	@ tmp239, pidStats, TagValues
	subs	r2, r3, #1	@ tmp240, tmp239
	sbcs	r3, r3, r2	@ tmp238, tmp239, tmp240
	rsbs	r3, r3, #0	@ tmp241, tmp238
	ands	r6, r3	@ pidStats, tmp241
.L371:
@ Patches/../C_code.c:865:     struct PidStatsChar * pidStats = (struct PidStatsChar *)GetPidStats(i);
	lsls	r0, r4, #24	@ tmp155, num,
	lsrs	r0, r0, #24	@ tmp154, tmp155,
	bl	.L22		@
@ Patches/../C_code.c:866:     if ((void *)pidStats == (void *)RandValues)
	mov	r3, r8	@ tmp243, tmp243
	ldr	r3, [r3]	@ RandValues, RandValues
	cmp	r0, r3	@ pidStats, RandValues
	beq	.L370		@,
@ Patches/../C_code.c:870:     if ((void *)pidStats == (void *)TagValues)
	mov	r3, r10	@ tmp244, tmp244
	ldr	r3, [r3]	@ TagValues, TagValues
	cmp	r0, r3	@ pidStats, TagValues
	beq	.L370		@,
@ Patches/../C_code.c:958:             if (!pidStatsA || !pidStatsB)
	cmp	r6, #0	@ pidStats,
	beq	.L370		@,
	cmp	r0, #0	@ pidStats,
	beq	.L370		@,
@ Patches/../C_code.c:962:             pidStatsA->moveAmt = pidStatsB->moveAmt;
	ldrb	r3, [r0, #7]	@ *pidStats_25, *pidStats_25
	lsrs	r3, r3, #6	@ tmp174, *pidStats_25,
@ Patches/../C_code.c:962:             pidStatsA->moveAmt = pidStatsB->moveAmt;
	lsls	r3, r3, #6	@ tmp185, tmp174,
	mov	ip, r3	@ tmp185, tmp185
@ Patches/../C_code.c:962:             pidStatsA->moveAmt = pidStatsB->moveAmt;
	movs	r2, #127	@ tmp177,
@ Patches/../C_code.c:962:             pidStatsA->moveAmt = pidStatsB->moveAmt;
	mov	r1, ip	@ tmp185, tmp185
@ Patches/../C_code.c:962:             pidStatsA->moveAmt = pidStatsB->moveAmt;
	mov	fp, r2	@ tmp177, tmp177
@ Patches/../C_code.c:962:             pidStatsA->moveAmt = pidStatsB->moveAmt;
	ldrb	r3, [r6, #7]	@ _33->moveAmt, _33->moveAmt
	subs	r2, r2, #64	@ tmp189,
	ands	r3, r2	@ tmp190, tmp189
	orrs	r3, r1	@ tmp194, tmp185
@ Patches/../C_code.c:962:             pidStatsA->moveAmt = pidStatsB->moveAmt;
	ldrb	r4, [r0, #8]	@ *pidStats_25, *pidStats_25
@ Patches/../C_code.c:962:             pidStatsA->moveAmt = pidStatsB->moveAmt;
	strb	r3, [r6, #7]	@ tmp194, _33->moveAmt
	mov	r3, fp	@ tmp177, tmp177
	mov	r1, fp	@ tmp177, tmp177
	ands	r4, r3	@ tmp200, tmp177
	ldrb	r3, [r6, #8]	@ _33->moveAmt, _33->moveAmt
	bics	r3, r1	@ tmp208, tmp177
	orrs	r3, r4	@ tmp212, tmp200
	strb	r3, [r6, #8]	@ tmp212, _33->moveAmt
@ Patches/../C_code.c:963:             pidStatsA->deployAmt = pidStatsB->deployAmt;
	ldrb	r3, [r6, #7]	@ _33->deployAmt, _33->deployAmt
@ Patches/../C_code.c:963:             pidStatsA->deployAmt = pidStatsB->deployAmt;
	ldrb	r1, [r0, #7]	@ *pidStats_25, *pidStats_25
@ Patches/../C_code.c:963:             pidStatsA->deployAmt = pidStatsB->deployAmt;
	bics	r3, r2	@ tmp228, tmp189
	ands	r1, r2	@ tmp224, tmp189
	orrs	r3, r1	@ tmp232, tmp224
	strb	r3, [r6, #7]	@ tmp232, _33->deployAmt
.L370:
@ Patches/../C_code.c:950:     for (int i = 1; i <= 0x45; ++i)
	adds	r5, r5, #1	@ i,
@ Patches/../C_code.c:950:     for (int i = 1; i <= 0x45; ++i)
	cmp	r5, #70	@ i,
	beq	.L380		@,
.L373:
@ Patches/../C_code.c:952:         table = GetCharacterData(i); // check for morphs and duplicates in vanilla table
	movs	r0, r5	@, i
	bl	.L68		@
@ Patches/../C_code.c:953:         num = GetAdjustedCharacterID(table);
	bl	GetAdjustedCharacterID		@
	movs	r4, r0	@ num, tmp246
@ Patches/../C_code.c:954:         if (num != (i) && num <= 0x45)
	cmp	r0, r5	@ num, i
	beq	.L370		@,
@ Patches/../C_code.c:954:         if (num != (i) && num <= 0x45)
	movs	r2, #69	@ tmp142,
	movs	r1, #0	@ tmp144,
	lsrs	r3, r0, #31	@ tmp143, num,
	cmp	r2, r0	@ tmp142, num
	adcs	r3, r3, r1	@ tmp141, tmp143, tmp144
@ Patches/../C_code.c:954:         if (num != (i) && num <= 0x45)
	lsls	r3, r3, #24	@ tmp146, tmp141,
	beq	.L370		@,
@ Patches/../C_code.c:865:     struct PidStatsChar * pidStats = (struct PidStatsChar *)GetPidStats(i);
	lsls	r0, r5, #24	@ tmp148, i,
	lsrs	r0, r0, #24	@ tmp147, tmp148,
	bl	.L22		@
@ Patches/../C_code.c:866:     if ((void *)pidStats == (void *)RandValues)
	mov	r3, r8	@ tmp243, tmp243
	ldr	r3, [r3]	@ RandValues, RandValues
@ Patches/../C_code.c:865:     struct PidStatsChar * pidStats = (struct PidStatsChar *)GetPidStats(i);
	movs	r6, r0	@ pidStats, tmp247
@ Patches/../C_code.c:866:     if ((void *)pidStats == (void *)RandValues)
	cmp	r0, r3	@ pidStats, RandValues
	bne	.L381		@,
@ Patches/../C_code.c:868:         return NULL;
	movs	r6, #0	@ pidStats,
	b	.L371		@
.L380:
@ Patches/../C_code.c:966: }
	@ sp needed	@
	pop	{r4, r5, r6, r7}
	mov	fp, r7
	mov	r10, r6
	mov	r9, r5
	mov	r8, r4
	pop	{r3, r4, r5, r6, r7}
	pop	{r0}
	bx	r0
.L383:
	.align	2
.L382:
	.word	GetPidStats
	.word	RandValues
	.word	TagValues
	.word	GetCharacterData
	.size	CopyBWLForCharDuplicates, .-CopyBWLForCharDuplicates
	.align	1
	.p2align 2,,3
	.global	GetUnitListToUse
	.syntax unified
	.code	16
	.thumb_func
	.type	GetUnitListToUse, %function
GetUnitListToUse:
	@ Function supports interworking.
	@ args = 0, pretend = 0, frame = 0
	@ frame_needed = 0, uses_anonymous_args = 0
	push	{r4, lr}	@
@ Patches/../C_code.c:2053:     if (!table->portraitId)
	ldrh	r3, [r0, #6]	@ tmp119,
	cmp	r3, #0	@ tmp119,
	beq	.L386		@,
	bl	GetUnitListToUse.part.0		@
.L384:
@ Patches/../C_code.c:2134: }
	@ sp needed	@
	pop	{r4}
	pop	{r1}
	bx	r1
.L386:
@ Patches/../C_code.c:2055:         return result;
	movs	r0, #0	@ <retval>,
	b	.L384		@
	.size	GetUnitListToUse, .-GetUnitListToUse
	.align	1
	.p2align 2,,3
	.global	CallGetUnitListToUse
	.syntax unified
	.code	16
	.thumb_func
	.type	CallGetUnitListToUse, %function
CallGetUnitListToUse:
	@ Function supports interworking.
	@ args = 0, pretend = 0, frame = 0
	@ frame_needed = 0, uses_anonymous_args = 0
@ Patches/../C_code.c:2139:     if (RecruitValues->recruitment == 4)
	ldr	r3, .L395	@ tmp124,
	ldr	r3, [r3]	@ RecruitValues, RecruitValues
@ Patches/../C_code.c:2137: {
	push	{r4, lr}	@
@ Patches/../C_code.c:2139:     if (RecruitValues->recruitment == 4)
	ldrb	r4, [r3]	@ MEM[(struct RecruitmentValues *)pretmp_22], MEM[(struct RecruitmentValues *)pretmp_22]
	movs	r3, #7	@ tmp130,
	ands	r4, r3	@ _24, tmp130
@ Patches/../C_code.c:2053:     if (!table->portraitId)
	ldrh	r3, [r0, #6]	@ tmp132,
	cmp	r3, #0	@ tmp132,
	beq	.L393		@,
	bl	GetUnitListToUse.part.0		@
@ Patches/../C_code.c:2139:     if (RecruitValues->recruitment == 4)
	cmp	r4, #4	@ _24,
	beq	.L394		@,
.L387:
@ Patches/../C_code.c:2151: }
	@ sp needed	@
	pop	{r4}
	pop	{r1}
	bx	r1
.L394:
@ Patches/../C_code.c:2141:         if (result == 1)
	cmp	r0, #1	@ <retval>,
	beq	.L392		@,
@ Patches/../C_code.c:2145:         else if (result == 2)
	subs	r0, r0, #2	@ tmp135,
	rsbs	r3, r0, #0	@ tmp136, tmp135
	adcs	r0, r0, r3	@ <retval>, tmp135, tmp136
	b	.L387		@
.L393:
@ Patches/../C_code.c:2139:     if (RecruitValues->recruitment == 4)
	movs	r0, #0	@ <retval>,
	b	.L387		@
.L392:
@ Patches/../C_code.c:2143:             return 2;
	movs	r0, #2	@ <retval>,
	b	.L387		@
.L396:
	.align	2
.L395:
	.word	RecruitValues
	.size	CallGetUnitListToUse, .-CallGetUnitListToUse
	.align	1
	.p2align 2,,3
	.global	DoesCharMatchGender
	.syntax unified
	.code	16
	.thumb_func
	.type	DoesCharMatchGender, %function
DoesCharMatchGender:
	@ Function supports interworking.
	@ args = 0, pretend = 0, frame = 8
	@ frame_needed = 0, uses_anonymous_args = 0
	push	{r4, lr}	@
@ Patches/../C_code.c:2168:     if ((tags.Male && tags.Female) || (!tags.Male && !tags.Female))
	movs	r4, #12	@ tmp135,
@ Patches/../C_code.c:2168:     if ((tags.Male && tags.Female) || (!tags.Male && !tags.Female))
	lsls	r3, r2, #24	@ _3, tmp161,
@ Patches/../C_code.c:2168:     if ((tags.Male && tags.Female) || (!tags.Male && !tags.Female))
	ands	r2, r4	@ tmp136, tmp135
	ldr	r4, .L402	@ tmp139,
	lsrs	r4, r4, r2	@ tmp138, tmp139, tmp136
	movs	r2, #1	@ tmp140,
@ Patches/../C_code.c:2166: {
	sub	sp, sp, #8	@,,
@ Patches/../C_code.c:2168:     if ((tags.Male && tags.Female) || (!tags.Male && !tags.Female))
	lsrs	r3, r3, #24	@ _3, _3,
@ Patches/../C_code.c:2168:     if ((tags.Male && tags.Female) || (!tags.Male && !tags.Female))
	tst	r2, r4	@ tmp140, tmp138
	bne	.L400		@,
@ Patches/../C_code.c:2167:     u32 attr = table->attributes | ctable->attributes;
	ldr	r0, [r0, #40]	@ table_12(D)->attributes, table_12(D)->attributes
	ldr	r1, [r1, #40]	@ ctable_13(D)->attributes, ctable_13(D)->attributes
	orrs	r1, r0	@ attr, table_12(D)->attributes
@ Patches/../C_code.c:2172:     if ((attr & CA_FEMALE) && tags.Female)
	lsls	r1, r1, #17	@ tmp162, attr,
	bmi	.L401		@,
@ Patches/../C_code.c:2176:     if ((!(attr & CA_FEMALE)) && tags.Male)
	lsrs	r0, r3, #2	@ tmp153, _3,
	ands	r0, r2	@ <retval>, tmp140
.L397:
@ Patches/../C_code.c:2182: }
	add	sp, sp, #8	@,,
	@ sp needed	@
	pop	{r4}
	pop	{r1}
	bx	r1
.L401:
@ Patches/../C_code.c:2172:     if ((attr & CA_FEMALE) && tags.Female)
	lsrs	r0, r3, #3	@ tmp148, _3,
	ands	r0, r2	@ <retval>, tmp140
	b	.L397		@
.L400:
@ Patches/../C_code.c:2170:         return true;
	movs	r0, #1	@ <retval>,
	b	.L397		@
.L403:
	.align	2
.L402:
	.word	4097
	.size	DoesCharMatchGender, .-DoesCharMatchGender
	.align	1
	.p2align 2,,3
	.global	DoesCharMatchPromotion
	.syntax unified
	.code	16
	.thumb_func
	.type	DoesCharMatchPromotion, %function
DoesCharMatchPromotion:
	@ Function supports interworking.
	@ args = 0, pretend = 0, frame = 8
	@ frame_needed = 0, uses_anonymous_args = 0
@ Patches/../C_code.c:2186:     u32 attr = table->attributes | ctable->attributes;
	ldr	r3, [r0, #40]	@ table_12(D)->attributes, table_12(D)->attributes
	ldr	r1, [r1, #40]	@ ctable_13(D)->attributes, ctable_13(D)->attributes
	orrs	r3, r1	@ attr, ctable_13(D)->attributes
@ Patches/../C_code.c:2187:     int isPromoted = (attr & CA_PROMOTED) != 0;
	movs	r1, #128	@ tmp131,
@ Patches/../C_code.c:2185: {
	push	{r4, lr}	@
@ Patches/../C_code.c:2190:     if (tags.Promoted == tags.Unpromoted)
	movs	r4, #1	@ tmp147,
@ Patches/../C_code.c:2187:     int isPromoted = (attr & CA_PROMOTED) != 0;
	lsls	r1, r1, #1	@ tmp131, tmp131,
@ Patches/../C_code.c:2190:     if (tags.Promoted == tags.Unpromoted)
	lsls	r0, r2, #30	@ tmp137, tmp163,
@ Patches/../C_code.c:2187:     int isPromoted = (attr & CA_PROMOTED) != 0;
	ands	r3, r1	@ _3, tmp131
@ Patches/../C_code.c:2190:     if (tags.Promoted == tags.Unpromoted)
	lsls	r1, r2, #24	@ tags, tmp163,
@ Patches/../C_code.c:2185: {
	sub	sp, sp, #8	@,,
@ Patches/../C_code.c:2190:     if (tags.Promoted == tags.Unpromoted)
	lsrs	r1, r1, #24	@ tags, tags,
@ Patches/../C_code.c:2190:     if (tags.Promoted == tags.Unpromoted)
	lsrs	r0, r0, #31	@ tmp144, tmp137,
	ands	r2, r4	@ tmp146, tmp147
	cmp	r0, r2	@ tmp144, tmp146
	beq	.L407		@,
@ Patches/../C_code.c:2194:     return (isPromoted && tags.Promoted) || (!isPromoted && tags.Unpromoted);
	cmp	r3, #0	@ _3,
	bne	.L408		@,
	movs	r0, #1	@ tmp157,
	ands	r0, r1	@ <retval>, tags
.L404:
@ Patches/../C_code.c:2195: }
	add	sp, sp, #8	@,,
	@ sp needed	@
	pop	{r4}
	pop	{r1}
	bx	r1
.L408:
@ Patches/../C_code.c:2194:     return (isPromoted && tags.Promoted) || (!isPromoted && tags.Unpromoted);
	lsls	r1, r1, #30	@ tmp152, tags,
	lsrs	r0, r1, #31	@ <retval>, tmp152,
	b	.L404		@
.L407:
@ Patches/../C_code.c:2191:         return true;
	movs	r0, #1	@ <retval>,
	b	.L404		@
	.size	DoesCharMatchPromotion, .-DoesCharMatchPromotion
	.align	1
	.p2align 2,,3
	.global	HasAllClassTags
	.syntax unified
	.code	16
	.thumb_func
	.type	HasAllClassTags, %function
HasAllClassTags:
	@ Function supports interworking.
	@ args = 0, pretend = 0, frame = 8
	@ frame_needed = 0, uses_anonymous_args = 0
	@ link register save eliminated.
	lsrs	r0, r0, #16	@ tmp125, tmp127,
@ Patches/../C_code.c:2217:     if (tags.Dancer && tags.Lord && tags.Manakete && tags.Thief && tags.Pegasi && tags.Wyvern && tags.Mounted &&
	lsls	r0, r0, #24	@ tags, tmp125,
	lsrs	r0, r0, #24	@ tags, tags,
	subs	r0, r0, #255	@ tmp123,
	rsbs	r3, r0, #0	@ tmp124, tmp123
	adcs	r0, r0, r3	@ tmp122, tmp123, tmp124
@ Patches/../C_code.c:2216: {
	sub	sp, sp, #8	@,,
@ Patches/../C_code.c:2223: }
	add	sp, sp, #8	@,,
	@ sp needed	@
	bx	lr
	.size	HasAllClassTags, .-HasAllClassTags
	.align	1
	.p2align 2,,3
	.global	HasNoClassTags
	.syntax unified
	.code	16
	.thumb_func
	.type	HasNoClassTags, %function
HasNoClassTags:
	@ Function supports interworking.
	@ args = 0, pretend = 0, frame = 8
	@ frame_needed = 0, uses_anonymous_args = 0
	@ link register save eliminated.
	lsrs	r0, r0, #16	@ tmp124, tmp126,
@ Patches/../C_code.c:2226:     if (!tags.Dancer && !tags.Lord && !tags.Manakete && !tags.Thief && !tags.Pegasi && !tags.Wyvern && !tags.Mounted &&
	lsls	r0, r0, #24	@ tags, tmp124,
	lsrs	r0, r0, #24	@ tags, tags,
	rsbs	r3, r0, #0	@ tmp123, tags
	adcs	r0, r0, r3	@ tmp122, tags, tmp123
@ Patches/../C_code.c:2225: {
	sub	sp, sp, #8	@,,
@ Patches/../C_code.c:2232: }
	add	sp, sp, #8	@,,
	@ sp needed	@
	bx	lr
	.size	HasNoClassTags, .-HasNoClassTags
	.align	1
	.p2align 2,,3
	.global	DoesCharMatchWexp
	.syntax unified
	.code	16
	.thumb_func
	.type	DoesCharMatchWexp, %function
DoesCharMatchWexp:
	@ Function supports interworking.
	@ args = 0, pretend = 0, frame = 8
	@ frame_needed = 0, uses_anonymous_args = 0
	push	{r4, r5, lr}	@
	sub	sp, sp, #12	@,,
@ Patches/../C_code.c:2235: {
	lsrs	r3, r2, #16	@ tmp189, tmp193,
	str	r2, [sp, #4]	@, tags
@ Patches/../C_code.c:2236:     u32 attr = table->attributes | ctable->attributes;
	ldr	r0, [r0, #40]	@ table_16(D)->attributes, table_16(D)->attributes
	ldr	r2, [r1, #40]	@ ctable_17(D)->attributes, ctable_17(D)->attributes
	movs	r4, #128	@ tmp144,
	orrs	r0, r2	@ attr, ctable_17(D)->attributes
@ Patches/../C_code.c:2239:     if (tags.Dancer && isDancer)
	lsls	r2, r3, #24	@ _3, tmp189,
@ Patches/../C_code.c:2239:     if (tags.Dancer && isDancer)
	movs	r3, #48	@ tmp146,
	lsls	r4, r4, #11	@ tmp144, tmp144,
	ands	r4, r0	@ _20, attr
@ Patches/../C_code.c:2239:     if (tags.Dancer && isDancer)
	lsrs	r2, r2, #24	@ _3, _3,
@ Patches/../C_code.c:2239:     if (tags.Dancer && isDancer)
	tst	r3, r0	@ tmp146, attr
	beq	.L419		@,
	lsls	r3, r2, #29	@ tmp195, _3,
	bmi	.L418		@,
.L419:
@ Patches/../C_code.c:2243:     if (tags.Manakete && isMonster)
	lsls	r2, r2, #28	@ tmp196, _3,
	bpl	.L420		@,
	cmp	r4, #0	@ _20,
	bne	.L418		@,
.L420:
@ Patches/../C_code.c:2247:     int ranks = tags.wexp;
	add	r3, sp, #4	@ tmp186,,
	ldrb	r5, [r3, #1]	@ ranks,
@ Patches/../C_code.c:2248:     int classRanks = 0;
	movs	r0, #0	@ classRanks,
@ Patches/../C_code.c:2249:     for (int i = 0; i < 8; ++i)
	movs	r3, #0	@ i,
@ Patches/../C_code.c:2253:             classRanks |= (1 << i);
	movs	r4, #1	@ tmp188,
	adds	r1, r1, #44	@ tmp187,
.L416:
@ Patches/../C_code.c:2251:         if (ctable->baseRanks[i])
	ldrb	r2, [r1, r3]	@ MEM[(unsigned char *)_31 + _36 * 1], MEM[(unsigned char *)_31 + _36 * 1]
	cmp	r2, #0	@ MEM[(unsigned char *)_31 + _36 * 1],
	beq	.L415		@,
@ Patches/../C_code.c:2253:             classRanks |= (1 << i);
	movs	r2, r4	@ tmp179, tmp188
	lsls	r2, r2, r3	@ tmp179, tmp179, i
@ Patches/../C_code.c:2253:             classRanks |= (1 << i);
	orrs	r0, r2	@ classRanks, tmp179
.L415:
@ Patches/../C_code.c:2249:     for (int i = 0; i < 8; ++i)
	adds	r3, r3, #1	@ i,
@ Patches/../C_code.c:2249:     for (int i = 0; i < 8; ++i)
	cmp	r3, #8	@ i,
	bne	.L416		@,
@ Patches/../C_code.c:2256:     if (ranks & classRanks)
	ands	r0, r5	@ tmp181, ranks
@ Patches/../C_code.c:2256:     if (ranks & classRanks)
	subs	r3, r0, #1	@ tmp184, tmp181
	sbcs	r0, r0, r3	@ <retval>, tmp181, tmp184
.L411:
@ Patches/../C_code.c:2261: }
	add	sp, sp, #12	@,,
	@ sp needed	@
	pop	{r4, r5}
	pop	{r1}
	bx	r1
.L418:
@ Patches/../C_code.c:2241:         return true;
	movs	r0, #1	@ <retval>,
	b	.L411		@
	.size	DoesCharMatchWexp, .-DoesCharMatchWexp
	.align	1
	.p2align 2,,3
	.global	DoesCharMatchMonster
	.syntax unified
	.code	16
	.thumb_func
	.type	DoesCharMatchMonster, %function
DoesCharMatchMonster:
	@ Function supports interworking.
	@ args = 0, pretend = 0, frame = 16
	@ frame_needed = 0, uses_anonymous_args = 0
	@ link register save eliminated.
	sub	sp, sp, #16	@,,
@ Patches/../C_code.c:2264: {
	str	r2, [sp, #4]	@, tags
	lsrs	r2, r2, #16	@ tmp154, tmp158,
@ Patches/../C_code.c:2217:     if (tags.Dancer && tags.Lord && tags.Manakete && tags.Thief && tags.Pegasi && tags.Wyvern && tags.Mounted &&
	lsls	r2, r2, #24	@ MEM[(struct TagsStruct *)_25], tmp154,
	lsrs	r2, r2, #24	@ MEM[(struct TagsStruct *)_25], MEM[(struct TagsStruct *)_25],
	cmp	r2, #255	@ MEM[(struct TagsStruct *)_25],
	beq	.L433		@,
@ Patches/../C_code.c:2268:     u32 attr = table->attributes | ctable->attributes;
	ldr	r1, [r1, #40]	@ ctable_13(D)->attributes, ctable_13(D)->attributes
	ldr	r3, [r0, #40]	@ table_12(D)->attributes, table_12(D)->attributes
	orrs	r3, r1	@ attr, ctable_13(D)->attributes
	movs	r1, #128	@ tmp136,
	lsls	r1, r1, #11	@ tmp136, tmp136,
	ands	r3, r1	@ _16, tmp136
@ Patches/../C_code.c:2226:     if (!tags.Dancer && !tags.Lord && !tags.Manakete && !tags.Thief && !tags.Pegasi && !tags.Wyvern && !tags.Mounted &&
	cmp	r2, #0	@ MEM[(struct TagsStruct *)_25],
	beq	.L440		@,
@ Patches/../C_code.c:2274:     return isManakete && tags.Manakete;
	movs	r0, #0	@ <retval>,
@ Patches/../C_code.c:2274:     return isManakete && tags.Manakete;
	cmp	r3, #0	@ _16,
	beq	.L432		@,
@ Patches/../C_code.c:2274:     return isManakete && tags.Manakete;
	add	r3, sp, #4	@ tmp127,,
	ldrb	r0, [r3, #2]	@ tags, tags
	lsls	r0, r0, #28	@ tmp150, tags,
	lsrs	r0, r0, #31	@ <retval>, tmp150,
.L432:
@ Patches/../C_code.c:2275: }
	add	sp, sp, #16	@,,
	@ sp needed	@
	bx	lr
.L440:
@ Patches/../C_code.c:2272:         return !isManakete;
	rsbs	r0, r3, #0	@ <retval>, _16
	adcs	r0, r0, r3	@ <retval>, _16
	b	.L432		@
.L433:
@ Patches/../C_code.c:2266:         return true;
	movs	r0, #1	@ <retval>,
	b	.L432		@
	.size	DoesCharMatchMonster, .-DoesCharMatchMonster
	.align	1
	.p2align 2,,3
	.global	DoesCharMatchThief
	.syntax unified
	.code	16
	.thumb_func
	.type	DoesCharMatchThief, %function
DoesCharMatchThief:
	@ Function supports interworking.
	@ args = 0, pretend = 0, frame = 16
	@ frame_needed = 0, uses_anonymous_args = 0
	@ link register save eliminated.
	sub	sp, sp, #16	@,,
@ Patches/../C_code.c:2278: {
	str	r2, [sp, #4]	@, tags
	lsrs	r2, r2, #16	@ tmp154, tmp158,
@ Patches/../C_code.c:2217:     if (tags.Dancer && tags.Lord && tags.Manakete && tags.Thief && tags.Pegasi && tags.Wyvern && tags.Mounted &&
	lsls	r2, r2, #24	@ MEM[(struct TagsStruct *)_25], tmp154,
	lsrs	r2, r2, #24	@ MEM[(struct TagsStruct *)_25], MEM[(struct TagsStruct *)_25],
	cmp	r2, #255	@ MEM[(struct TagsStruct *)_25],
	beq	.L442		@,
@ Patches/../C_code.c:2282:     u32 attr = table->attributes | ctable->attributes;
	ldr	r1, [r1, #40]	@ ctable_13(D)->attributes, ctable_13(D)->attributes
	ldr	r3, [r0, #40]	@ table_12(D)->attributes, table_12(D)->attributes
	orrs	r3, r1	@ attr, ctable_13(D)->attributes
	movs	r1, #8	@ tmp136,
	ands	r1, r3	@ _16, attr
@ Patches/../C_code.c:2226:     if (!tags.Dancer && !tags.Lord && !tags.Manakete && !tags.Thief && !tags.Pegasi && !tags.Wyvern && !tags.Mounted &&
	cmp	r2, #0	@ MEM[(struct TagsStruct *)_25],
	beq	.L449		@,
@ Patches/../C_code.c:2288:     return isThief && tags.Thief;
	movs	r0, #0	@ <retval>,
@ Patches/../C_code.c:2288:     return isThief && tags.Thief;
	cmp	r1, #0	@ _16,
	beq	.L441		@,
@ Patches/../C_code.c:2288:     return isThief && tags.Thief;
	add	r3, sp, #4	@ tmp127,,
	ldrb	r0, [r3, #2]	@ tags, tags
	lsls	r0, r0, #30	@ tmp150, tags,
	lsrs	r0, r0, #31	@ <retval>, tmp150,
.L441:
@ Patches/../C_code.c:2289: }
	add	sp, sp, #16	@,,
	@ sp needed	@
	bx	lr
.L449:
@ Patches/../C_code.c:2286:         return !isThief;
	rsbs	r0, r1, #0	@ <retval>, _16
	adcs	r0, r0, r1	@ <retval>, _16
	b	.L441		@
.L442:
@ Patches/../C_code.c:2280:         return true;
	movs	r0, #1	@ <retval>,
	b	.L441		@
	.size	DoesCharMatchThief, .-DoesCharMatchThief
	.align	1
	.p2align 2,,3
	.global	DoesCharMatchLord
	.syntax unified
	.code	16
	.thumb_func
	.type	DoesCharMatchLord, %function
DoesCharMatchLord:
	@ Function supports interworking.
	@ args = 0, pretend = 0, frame = 16
	@ frame_needed = 0, uses_anonymous_args = 0
	@ link register save eliminated.
	sub	sp, sp, #16	@,,
@ Patches/../C_code.c:2292: {
	str	r2, [sp, #4]	@, tags
	lsrs	r2, r2, #16	@ tmp154, tmp158,
@ Patches/../C_code.c:2217:     if (tags.Dancer && tags.Lord && tags.Manakete && tags.Thief && tags.Pegasi && tags.Wyvern && tags.Mounted &&
	lsls	r2, r2, #24	@ MEM[(struct TagsStruct *)_24], tmp154,
	lsrs	r2, r2, #24	@ MEM[(struct TagsStruct *)_24], MEM[(struct TagsStruct *)_24],
	cmp	r2, #255	@ MEM[(struct TagsStruct *)_24],
	beq	.L451		@,
@ Patches/../C_code.c:2296:     u32 attr = table->attributes | ctable->attributes;
	ldr	r1, [r1, #40]	@ ctable_13(D)->attributes, ctable_13(D)->attributes
	ldr	r3, [r0, #40]	@ table_12(D)->attributes, table_12(D)->attributes
	orrs	r3, r1	@ attr, ctable_13(D)->attributes
	movs	r1, #128	@ tmp135,
	lsls	r1, r1, #6	@ tmp135, tmp135,
	ands	r3, r1	@ _16, tmp135
@ Patches/../C_code.c:2226:     if (!tags.Dancer && !tags.Lord && !tags.Manakete && !tags.Thief && !tags.Pegasi && !tags.Wyvern && !tags.Mounted &&
	cmp	r2, #0	@ MEM[(struct TagsStruct *)_24],
	beq	.L458		@,
@ Patches/../C_code.c:2302:     return isLord && tags.Lord;
	movs	r0, #0	@ <retval>,
@ Patches/../C_code.c:2302:     return isLord && tags.Lord;
	cmp	r3, #0	@ _16,
	beq	.L450		@,
@ Patches/../C_code.c:2302:     return isLord && tags.Lord;
	add	r3, sp, #4	@ tmp126,,
	ldrb	r3, [r3, #2]	@ tags, tags
	adds	r0, r0, #1	@ tmp150,
	ands	r0, r3	@ <retval>, tags
.L450:
@ Patches/../C_code.c:2303: }
	add	sp, sp, #16	@,,
	@ sp needed	@
	bx	lr
.L458:
@ Patches/../C_code.c:2300:         return !isLord;
	rsbs	r0, r3, #0	@ <retval>, _16
	adcs	r0, r0, r3	@ <retval>, _16
	b	.L450		@
.L451:
@ Patches/../C_code.c:2294:         return true;
	movs	r0, #1	@ <retval>,
	b	.L450		@
	.size	DoesCharMatchLord, .-DoesCharMatchLord
	.align	1
	.p2align 2,,3
	.global	DoesCharMatchDancer
	.syntax unified
	.code	16
	.thumb_func
	.type	DoesCharMatchDancer, %function
DoesCharMatchDancer:
	@ Function supports interworking.
	@ args = 0, pretend = 0, frame = 16
	@ frame_needed = 0, uses_anonymous_args = 0
	@ link register save eliminated.
	sub	sp, sp, #16	@,,
@ Patches/../C_code.c:2306: {
	str	r2, [sp, #4]	@, tags
	lsrs	r2, r2, #16	@ tmp154, tmp158,
@ Patches/../C_code.c:2217:     if (tags.Dancer && tags.Lord && tags.Manakete && tags.Thief && tags.Pegasi && tags.Wyvern && tags.Mounted &&
	lsls	r2, r2, #24	@ MEM[(struct TagsStruct *)_25], tmp154,
	lsrs	r2, r2, #24	@ MEM[(struct TagsStruct *)_25], MEM[(struct TagsStruct *)_25],
	cmp	r2, #255	@ MEM[(struct TagsStruct *)_25],
	beq	.L460		@,
@ Patches/../C_code.c:2310:     u32 attr = table->attributes | ctable->attributes;
	ldr	r1, [r1, #40]	@ ctable_13(D)->attributes, ctable_13(D)->attributes
	ldr	r3, [r0, #40]	@ table_12(D)->attributes, table_12(D)->attributes
	orrs	r3, r1	@ attr, ctable_13(D)->attributes
	movs	r1, #48	@ tmp136,
	ands	r1, r3	@ _16, attr
@ Patches/../C_code.c:2226:     if (!tags.Dancer && !tags.Lord && !tags.Manakete && !tags.Thief && !tags.Pegasi && !tags.Wyvern && !tags.Mounted &&
	cmp	r2, #0	@ MEM[(struct TagsStruct *)_25],
	beq	.L467		@,
@ Patches/../C_code.c:2316:     return isDancer && tags.Dancer;
	movs	r0, #0	@ <retval>,
@ Patches/../C_code.c:2316:     return isDancer && tags.Dancer;
	cmp	r1, #0	@ _16,
	beq	.L459		@,
@ Patches/../C_code.c:2316:     return isDancer && tags.Dancer;
	add	r3, sp, #4	@ tmp127,,
	ldrb	r0, [r3, #2]	@ tags, tags
	lsls	r0, r0, #29	@ tmp150, tags,
	lsrs	r0, r0, #31	@ <retval>, tmp150,
.L459:
@ Patches/../C_code.c:2317: }
	add	sp, sp, #16	@,,
	@ sp needed	@
	bx	lr
.L467:
@ Patches/../C_code.c:2314:         return !isDancer;
	rsbs	r0, r1, #0	@ <retval>, _16
	adcs	r0, r0, r1	@ <retval>, _16
	b	.L459		@
.L460:
@ Patches/../C_code.c:2308:         return true;
	movs	r0, #1	@ <retval>,
	b	.L459		@
	.size	DoesCharMatchDancer, .-DoesCharMatchDancer
	.align	1
	.p2align 2,,3
	.global	DoesCharMatchPegasi
	.syntax unified
	.code	16
	.thumb_func
	.type	DoesCharMatchPegasi, %function
DoesCharMatchPegasi:
	@ Function supports interworking.
	@ args = 0, pretend = 0, frame = 16
	@ frame_needed = 0, uses_anonymous_args = 0
	@ link register save eliminated.
	sub	sp, sp, #16	@,,
@ Patches/../C_code.c:2320: {
	str	r2, [sp, #4]	@, tags
	lsrs	r2, r2, #16	@ tmp154, tmp158,
@ Patches/../C_code.c:2217:     if (tags.Dancer && tags.Lord && tags.Manakete && tags.Thief && tags.Pegasi && tags.Wyvern && tags.Mounted &&
	lsls	r2, r2, #24	@ MEM[(struct TagsStruct *)_25], tmp154,
	lsrs	r2, r2, #24	@ MEM[(struct TagsStruct *)_25], MEM[(struct TagsStruct *)_25],
	cmp	r2, #255	@ MEM[(struct TagsStruct *)_25],
	beq	.L469		@,
@ Patches/../C_code.c:2324:     u32 attr = table->attributes | ctable->attributes;
	ldr	r1, [r1, #40]	@ ctable_13(D)->attributes, ctable_13(D)->attributes
	ldr	r3, [r0, #40]	@ table_12(D)->attributes, table_12(D)->attributes
	orrs	r3, r1	@ attr, ctable_13(D)->attributes
	movs	r1, #128	@ tmp136,
	lsls	r1, r1, #5	@ tmp136, tmp136,
	ands	r3, r1	@ _16, tmp136
@ Patches/../C_code.c:2226:     if (!tags.Dancer && !tags.Lord && !tags.Manakete && !tags.Thief && !tags.Pegasi && !tags.Wyvern && !tags.Mounted &&
	cmp	r2, #0	@ MEM[(struct TagsStruct *)_25],
	beq	.L476		@,
@ Patches/../C_code.c:2330:     return isPegasi && tags.Pegasi;
	movs	r0, #0	@ <retval>,
@ Patches/../C_code.c:2330:     return isPegasi && tags.Pegasi;
	cmp	r3, #0	@ _16,
	beq	.L468		@,
@ Patches/../C_code.c:2330:     return isPegasi && tags.Pegasi;
	add	r3, sp, #4	@ tmp127,,
	ldrb	r0, [r3, #2]	@ tags, tags
	lsls	r0, r0, #27	@ tmp150, tags,
	lsrs	r0, r0, #31	@ <retval>, tmp150,
.L468:
@ Patches/../C_code.c:2331: }
	add	sp, sp, #16	@,,
	@ sp needed	@
	bx	lr
.L476:
@ Patches/../C_code.c:2328:         return !isPegasi;
	rsbs	r0, r3, #0	@ <retval>, _16
	adcs	r0, r0, r3	@ <retval>, _16
	b	.L468		@
.L469:
@ Patches/../C_code.c:2322:         return true;
	movs	r0, #1	@ <retval>,
	b	.L468		@
	.size	DoesCharMatchPegasi, .-DoesCharMatchPegasi
	.align	1
	.p2align 2,,3
	.global	DoesCharMatchWyvern
	.syntax unified
	.code	16
	.thumb_func
	.type	DoesCharMatchWyvern, %function
DoesCharMatchWyvern:
	@ Function supports interworking.
	@ args = 0, pretend = 0, frame = 16
	@ frame_needed = 0, uses_anonymous_args = 0
	@ link register save eliminated.
	sub	sp, sp, #16	@,,
@ Patches/../C_code.c:2333: {
	str	r2, [sp, #4]	@, tags
	lsrs	r2, r2, #16	@ tmp154, tmp158,
@ Patches/../C_code.c:2217:     if (tags.Dancer && tags.Lord && tags.Manakete && tags.Thief && tags.Pegasi && tags.Wyvern && tags.Mounted &&
	lsls	r2, r2, #24	@ MEM[(struct TagsStruct *)_25], tmp154,
	lsrs	r2, r2, #24	@ MEM[(struct TagsStruct *)_25], MEM[(struct TagsStruct *)_25],
	cmp	r2, #255	@ MEM[(struct TagsStruct *)_25],
	beq	.L478		@,
@ Patches/../C_code.c:2337:     u32 attr = table->attributes | ctable->attributes;
	ldr	r1, [r1, #40]	@ ctable_13(D)->attributes, ctable_13(D)->attributes
	ldr	r3, [r0, #40]	@ table_12(D)->attributes, table_12(D)->attributes
	orrs	r3, r1	@ attr, ctable_13(D)->attributes
	movs	r1, #128	@ tmp136,
	lsls	r1, r1, #4	@ tmp136, tmp136,
	ands	r3, r1	@ _16, tmp136
@ Patches/../C_code.c:2226:     if (!tags.Dancer && !tags.Lord && !tags.Manakete && !tags.Thief && !tags.Pegasi && !tags.Wyvern && !tags.Mounted &&
	cmp	r2, #0	@ MEM[(struct TagsStruct *)_25],
	beq	.L485		@,
@ Patches/../C_code.c:2343:     return isWyvern && tags.Wyvern;
	movs	r0, #0	@ <retval>,
@ Patches/../C_code.c:2343:     return isWyvern && tags.Wyvern;
	cmp	r3, #0	@ _16,
	beq	.L477		@,
@ Patches/../C_code.c:2343:     return isWyvern && tags.Wyvern;
	add	r3, sp, #4	@ tmp127,,
	ldrb	r0, [r3, #2]	@ tags, tags
	lsls	r0, r0, #26	@ tmp150, tags,
	lsrs	r0, r0, #31	@ <retval>, tmp150,
.L477:
@ Patches/../C_code.c:2344: }
	add	sp, sp, #16	@,,
	@ sp needed	@
	bx	lr
.L485:
@ Patches/../C_code.c:2341:         return !isWyvern;
	rsbs	r0, r3, #0	@ <retval>, _16
	adcs	r0, r0, r3	@ <retval>, _16
	b	.L477		@
.L478:
@ Patches/../C_code.c:2335:         return true;
	movs	r0, #1	@ <retval>,
	b	.L477		@
	.size	DoesCharMatchWyvern, .-DoesCharMatchWyvern
	.align	1
	.p2align 2,,3
	.global	DoesCharMatchMount
	.syntax unified
	.code	16
	.thumb_func
	.type	DoesCharMatchMount, %function
DoesCharMatchMount:
	@ Function supports interworking.
	@ args = 0, pretend = 0, frame = 16
	@ frame_needed = 0, uses_anonymous_args = 0
	@ link register save eliminated.
	sub	sp, sp, #16	@,,
@ Patches/../C_code.c:2347: {
	str	r2, [sp, #4]	@, tags
	lsrs	r2, r2, #16	@ tmp154, tmp158,
@ Patches/../C_code.c:2217:     if (tags.Dancer && tags.Lord && tags.Manakete && tags.Thief && tags.Pegasi && tags.Wyvern && tags.Mounted &&
	lsls	r2, r2, #24	@ MEM[(struct TagsStruct *)_25], tmp154,
	lsrs	r2, r2, #24	@ MEM[(struct TagsStruct *)_25], MEM[(struct TagsStruct *)_25],
	cmp	r2, #255	@ MEM[(struct TagsStruct *)_25],
	beq	.L487		@,
@ Patches/../C_code.c:2351:     u32 attr = table->attributes | ctable->attributes;
	ldr	r1, [r1, #40]	@ ctable_13(D)->attributes, ctable_13(D)->attributes
	ldr	r3, [r0, #40]	@ table_12(D)->attributes, table_12(D)->attributes
	orrs	r3, r1	@ attr, ctable_13(D)->attributes
	movs	r1, #128	@ tmp136,
	lsls	r1, r1, #3	@ tmp136, tmp136,
	ands	r3, r1	@ _16, tmp136
@ Patches/../C_code.c:2226:     if (!tags.Dancer && !tags.Lord && !tags.Manakete && !tags.Thief && !tags.Pegasi && !tags.Wyvern && !tags.Mounted &&
	cmp	r2, #0	@ MEM[(struct TagsStruct *)_25],
	beq	.L494		@,
@ Patches/../C_code.c:2357:     return isMount && tags.Mounted;
	movs	r0, #0	@ <retval>,
@ Patches/../C_code.c:2357:     return isMount && tags.Mounted;
	cmp	r3, #0	@ _16,
	beq	.L486		@,
@ Patches/../C_code.c:2357:     return isMount && tags.Mounted;
	add	r3, sp, #4	@ tmp127,,
	ldrb	r0, [r3, #2]	@ tags, tags
	lsls	r0, r0, #25	@ tmp150, tags,
	lsrs	r0, r0, #31	@ <retval>, tmp150,
.L486:
@ Patches/../C_code.c:2358: }
	add	sp, sp, #16	@,,
	@ sp needed	@
	bx	lr
.L494:
@ Patches/../C_code.c:2355:         return !isMount;
	rsbs	r0, r3, #0	@ <retval>, _16
	adcs	r0, r0, r3	@ <retval>, _16
	b	.L486		@
.L487:
@ Patches/../C_code.c:2349:         return true;
	movs	r0, #1	@ <retval>,
	b	.L486		@
	.size	DoesCharMatchMount, .-DoesCharMatchMount
	.align	1
	.p2align 2,,3
	.global	DoesCharMatchArmour
	.syntax unified
	.code	16
	.thumb_func
	.type	DoesCharMatchArmour, %function
DoesCharMatchArmour:
	@ Function supports interworking.
	@ args = 0, pretend = 0, frame = 16
	@ frame_needed = 0, uses_anonymous_args = 0
	push	{r4, lr}	@
	lsrs	r4, r2, #16	@ tmp159, tags,
	sub	sp, sp, #16	@,,
@ Patches/../C_code.c:2217:     if (tags.Dancer && tags.Lord && tags.Manakete && tags.Thief && tags.Pegasi && tags.Wyvern && tags.Mounted &&
	lsls	r4, r4, #24	@ MEM[(struct TagsStruct *)_32], tmp159,
@ Patches/../C_code.c:2362: {
	str	r2, [sp, #4]	@ tags, tags
	str	r2, [sp, #12]	@ tags, MEM[(struct TagsStruct *)_32]
@ Patches/../C_code.c:2217:     if (tags.Dancer && tags.Lord && tags.Manakete && tags.Thief && tags.Pegasi && tags.Wyvern && tags.Mounted &&
	lsrs	r4, r4, #24	@ MEM[(struct TagsStruct *)_32], MEM[(struct TagsStruct *)_32],
	cmp	r4, #255	@ MEM[(struct TagsStruct *)_32],
	beq	.L507		@,
@ Patches/../C_code.c:2369:     while (*armourClasses)
	ldr	r3, .L520	@ tmp134,
@ Patches/../C_code.c:2367:     int classID = ctable->number;
	ldrb	r0, [r1, #4]	@ _2,
@ Patches/../C_code.c:2369:     while (*armourClasses)
	ldrb	r1, [r3]	@ _3, MEM[(u8 *)&FilterArmourClasses]
	cmp	r1, #0	@ _3,
	bne	.L497		@,
	b	.L515		@
.L517:
	ldrb	r1, [r3, #1]	@ _3, MEM[(u8 *)armourClasses_15]
@ Patches/../C_code.c:2376:         ++armourClasses;
	adds	r3, r3, #1	@ armourClasses,
@ Patches/../C_code.c:2369:     while (*armourClasses)
	cmp	r1, #0	@ _3,
	beq	.L516		@,
.L497:
@ Patches/../C_code.c:2371:         if (*armourClasses == classID)
	cmp	r0, r1	@ _2, _3
	bne	.L517		@,
	lsrs	r2, r2, #16	@ tmp161, tags,
@ Patches/../C_code.c:2226:     if (!tags.Dancer && !tags.Lord && !tags.Manakete && !tags.Thief && !tags.Pegasi && !tags.Wyvern && !tags.Mounted &&
	lsls	r2, r2, #24	@ MEM[(struct TagsStruct *)_32], tmp161,
	lsrs	r2, r2, #24	@ MEM[(struct TagsStruct *)_32], MEM[(struct TagsStruct *)_32],
	beq	.L518		@,
@ Patches/../C_code.c:2382:     return isArmour && tags.Armoured;
	movs	r0, #2	@ tags,
	add	r3, sp, #4	@ tmp148,,
	ldrsb	r0, [r3, r0]	@ tags,* tags
	lsrs	r0, r0, #31	@ <retval>, tags,
.L495:
@ Patches/../C_code.c:2383: }
	add	sp, sp, #16	@,,
	@ sp needed	@
	pop	{r4}
	pop	{r1}
	bx	r1
.L516:
	lsrs	r2, r2, #16	@ tmp163, tags,
@ Patches/../C_code.c:2226:     if (!tags.Dancer && !tags.Lord && !tags.Manakete && !tags.Thief && !tags.Pegasi && !tags.Wyvern && !tags.Mounted &&
	lsls	r2, r2, #24	@ MEM[(struct TagsStruct *)_32], tmp163,
	lsrs	r2, r2, #24	@ MEM[(struct TagsStruct *)_32], MEM[(struct TagsStruct *)_32],
	beq	.L519		@,
.L503:
@ Patches/../C_code.c:2382:     return isArmour && tags.Armoured;
	movs	r0, #0	@ <retval>,
	b	.L495		@
.L515:
@ Patches/../C_code.c:2226:     if (!tags.Dancer && !tags.Lord && !tags.Manakete && !tags.Thief && !tags.Pegasi && !tags.Wyvern && !tags.Mounted &&
	cmp	r4, #0	@ MEM[(struct TagsStruct *)_32],
	bne	.L503		@,
.L507:
	movs	r0, #1	@ <retval>,
@ Patches/../C_code.c:2380:         return !isArmour;
	b	.L495		@
.L519:
@ Patches/../C_code.c:2366:     int isArmour = false;
	movs	r0, #0	@ isArmour,
.L504:
	movs	r3, #1	@ tmp140,
	eors	r0, r3	@ <retval>, tmp140
	b	.L495		@
.L518:
@ Patches/../C_code.c:2373:             isArmour = true;
	movs	r0, #1	@ isArmour,
	b	.L504		@
.L521:
	.align	2
.L520:
	.word	FilterArmourClasses
	.size	DoesCharMatchArmour, .-DoesCharMatchArmour
	.align	1
	.p2align 2,,3
	.global	FilterCharOut
	.syntax unified
	.code	16
	.thumb_func
	.type	FilterCharOut, %function
FilterCharOut:
	@ Function supports interworking.
	@ args = 0, pretend = 0, frame = 16
	@ frame_needed = 0, uses_anonymous_args = 0
	push	{r4, r5, r6, r7, lr}	@
	mov	lr, r8	@,
@ Patches/../C_code.c:2387:     struct TagsStruct tags = TagValues->tags;
	ldr	r3, .L617	@ tmp227,
@ Patches/../C_code.c:2386: {
	push	{lr}	@
@ Patches/../C_code.c:2387:     struct TagsStruct tags = TagValues->tags;
	ldr	r3, [r3]	@ TagValues, TagValues
	ldr	r6, [r3]	@ TagValues.82_1->tags, TagValues.82_1->tags
@ Patches/../C_code.c:2386: {
	sub	sp, sp, #16	@,,
@ Patches/../C_code.c:2389:     result = DoesCharMatchWexp(table, ctable, tags);
	movs	r2, r6	@, TagValues.82_1->tags
@ Patches/../C_code.c:2386: {
	movs	r4, r0	@ table, tmp511
	movs	r5, r1	@ ctable, tmp512
@ Patches/../C_code.c:2387:     struct TagsStruct tags = TagValues->tags;
	str	r6, [sp, #4]	@ TagValues.82_1->tags, tags
@ Patches/../C_code.c:2389:     result = DoesCharMatchWexp(table, ctable, tags);
	bl	DoesCharMatchWexp		@
	add	r3, sp, #12	@ tmp508,,
@ Patches/../C_code.c:2390:     result = result && DoesCharMatchGender(table, ctable, tags);
	cmp	r0, #0	@ tmp513,
	beq	.L596		@,
@ Patches/../C_code.c:2168:     if ((tags.Male && tags.Female) || (!tags.Male && !tags.Female))
	movs	r7, #12	@ tmp239,
@ Patches/../C_code.c:2167:     u32 attr = table->attributes | ctable->attributes;
	ldr	r2, [r5, #40]	@ ctable_15(D)->attributes, ctable_15(D)->attributes
	ldr	r1, [r4, #40]	@ table_14(D)->attributes, table_14(D)->attributes
	orrs	r1, r2	@ attr, ctable_15(D)->attributes
@ Patches/../C_code.c:2168:     if ((tags.Male && tags.Female) || (!tags.Male && !tags.Female))
	ldr	r2, .L617+4	@ tmp243,
	ands	r7, r6	@ tmp240, TagValues.82_1->tags
	lsrs	r2, r2, r7	@ tmp242, tmp243, tmp240
@ Patches/../C_code.c:2168:     if ((tags.Male && tags.Female) || (!tags.Male && !tags.Female))
	lsls	r0, r6, #24	@ _34, TagValues.82_1->tags,
	lsrs	r0, r0, #24	@ _34, _34,
@ Patches/../C_code.c:2168:     if ((tags.Male && tags.Female) || (!tags.Male && !tags.Female))
	lsls	r2, r2, #31	@ tmp520, tmp242,
	bpl	.LCB3494	@
	b	.L528	@long jump	@
.LCB3494:
@ Patches/../C_code.c:2172:     if ((attr & CA_FEMALE) && tags.Female)
	lsls	r2, r1, #17	@ tmp521, attr,
	bmi	.LCB3498	@
	b	.L527	@long jump	@
.LCB3498:
@ Patches/../C_code.c:2172:     if ((attr & CA_FEMALE) && tags.Female)
	lsls	r0, r0, #28	@ tmp522, _34,
	bpl	.LCB3504	@
	b	.L528	@long jump	@
.LCB3504:
.L596:
	movs	r2, r6	@ tags, TagValues.82_1->tags
.L523:
@ Patches/../C_code.c:2386: {
	movs	r1, #0	@ prephitmp_217,
	str	r2, [sp, #12]	@ tags, MEM[(struct TagsStruct *)_230]
@ Patches/../C_code.c:2217:     if (tags.Dancer && tags.Lord && tags.Manakete && tags.Thief && tags.Pegasi && tags.Wyvern && tags.Mounted &&
	ldrb	r6, [r3, #2]	@ MEM[(struct TagsStruct *)_230], MEM[(struct TagsStruct *)_230]
@ Patches/../C_code.c:2386: {
	mov	r8, r1	@ prephitmp_217, prephitmp_217
	str	r2, [sp, #8]	@ tags, MEM[(struct TagsStruct *)_226]
@ Patches/../C_code.c:2217:     if (tags.Dancer && tags.Lord && tags.Manakete && tags.Thief && tags.Pegasi && tags.Wyvern && tags.Mounted &&
	cmp	r6, #255	@ MEM[(struct TagsStruct *)_230],
	bne	.LCB3516	@
	b	.L533	@long jump	@
.LCB3516:
.L616:
@ Patches/../C_code.c:2282:     u32 attr = table->attributes | ctable->attributes;
	ldr	r0, [r5, #40]	@ ctable_15(D)->attributes, ctable_15(D)->attributes
	ldr	r1, [r4, #40]	@ table_14(D)->attributes, table_14(D)->attributes
	orrs	r1, r0	@ attr, ctable_15(D)->attributes
	movs	r0, #8	@ tmp314,
	ands	r0, r1	@ _124, attr
@ Patches/../C_code.c:2226:     if (!tags.Dancer && !tags.Lord && !tags.Manakete && !tags.Thief && !tags.Pegasi && !tags.Wyvern && !tags.Mounted &&
	cmp	r6, #0	@ MEM[(struct TagsStruct *)_230],
	bne	.LCB3524	@
	b	.L597	@long jump	@
.LCB3524:
@ Patches/../C_code.c:2288:     return isThief && tags.Thief;
	movs	r6, #0	@ _130,
@ Patches/../C_code.c:2288:     return isThief && tags.Thief;
	cmp	r0, #0	@ _124,
	beq	.LCB3527	@
	b	.L598	@long jump	@
.LCB3527:
.L536:
	str	r2, [sp, #12]	@ tags, MEM[(struct TagsStruct *)_230]
@ Patches/../C_code.c:2217:     if (tags.Dancer && tags.Lord && tags.Manakete && tags.Thief && tags.Pegasi && tags.Wyvern && tags.Mounted &&
	ldrb	r0, [r3, #2]	@ MEM[(struct TagsStruct *)_230], MEM[(struct TagsStruct *)_230]
	str	r2, [sp, #8]	@ tags, MEM[(struct TagsStruct *)_226]
	cmp	r0, #255	@ MEM[(struct TagsStruct *)_230],
	bne	.LCB3533	@
	b	.L537	@long jump	@
.LCB3533:
.L615:
@ Patches/../C_code.c:2296:     u32 attr = table->attributes | ctable->attributes;
	ldr	r7, [r5, #40]	@ ctable_15(D)->attributes, ctable_15(D)->attributes
	ldr	r1, [r4, #40]	@ table_14(D)->attributes, table_14(D)->attributes
	orrs	r1, r7	@ attr, ctable_15(D)->attributes
	movs	r7, #128	@ tmp341,
	lsls	r7, r7, #6	@ tmp341, tmp341,
	ands	r1, r7	@ _113, tmp341
@ Patches/../C_code.c:2226:     if (!tags.Dancer && !tags.Lord && !tags.Manakete && !tags.Thief && !tags.Pegasi && !tags.Wyvern && !tags.Mounted &&
	cmp	r0, #0	@ MEM[(struct TagsStruct *)_230],
	bne	.LCB3542	@
	b	.L599	@long jump	@
.LCB3542:
@ Patches/../C_code.c:2302:     return isLord && tags.Lord;
	cmp	r1, #0	@ _113,
	beq	.LCB3544	@
	b	.L600	@long jump	@
.LCB3544:
.L540:
	str	r2, [sp, #12]	@ tags, MEM[(struct TagsStruct *)_230]
@ Patches/../C_code.c:2217:     if (tags.Dancer && tags.Lord && tags.Manakete && tags.Thief && tags.Pegasi && tags.Wyvern && tags.Mounted &&
	ldrb	r0, [r3, #2]	@ MEM[(struct TagsStruct *)_230], MEM[(struct TagsStruct *)_230]
	str	r2, [sp, #8]	@ tags, MEM[(struct TagsStruct *)_226]
	cmp	r0, #255	@ MEM[(struct TagsStruct *)_230],
	bne	.LCB3550	@
	b	.L541	@long jump	@
.LCB3550:
.L614:
@ Patches/../C_code.c:2268:     u32 attr = table->attributes | ctable->attributes;
	ldr	r7, [r5, #40]	@ ctable_15(D)->attributes, ctable_15(D)->attributes
	ldr	r1, [r4, #40]	@ table_14(D)->attributes, table_14(D)->attributes
	orrs	r1, r7	@ attr, ctable_15(D)->attributes
	movs	r7, #128	@ tmp370,
	lsls	r7, r7, #11	@ tmp370, tmp370,
	ands	r1, r7	@ _102, tmp370
@ Patches/../C_code.c:2226:     if (!tags.Dancer && !tags.Lord && !tags.Manakete && !tags.Thief && !tags.Pegasi && !tags.Wyvern && !tags.Mounted &&
	cmp	r0, #0	@ MEM[(struct TagsStruct *)_230],
	bne	.LCB3559	@
	b	.L601	@long jump	@
.LCB3559:
@ Patches/../C_code.c:2274:     return isManakete && tags.Manakete;
	cmp	r1, #0	@ _102,
	beq	.LCB3561	@
	b	.L602	@long jump	@
.LCB3561:
.L544:
	str	r2, [sp, #12]	@ tags, MEM[(struct TagsStruct *)_230]
@ Patches/../C_code.c:2217:     if (tags.Dancer && tags.Lord && tags.Manakete && tags.Thief && tags.Pegasi && tags.Wyvern && tags.Mounted &&
	ldrb	r7, [r3, #2]	@ MEM[(struct TagsStruct *)_230], MEM[(struct TagsStruct *)_230]
	str	r2, [sp, #8]	@ tags, MEM[(struct TagsStruct *)_226]
	cmp	r7, #255	@ MEM[(struct TagsStruct *)_230],
	bne	.LCB3567	@
	b	.L545	@long jump	@
.LCB3567:
.L613:
@ Patches/../C_code.c:2310:     u32 attr = table->attributes | ctable->attributes;
	ldr	r1, [r5, #40]	@ ctable_15(D)->attributes, ctable_15(D)->attributes
	ldr	r0, [r4, #40]	@ table_14(D)->attributes, table_14(D)->attributes
	orrs	r0, r1	@ attr, ctable_15(D)->attributes
	movs	r1, #48	@ tmp397,
	ands	r1, r0	@ _91, attr
@ Patches/../C_code.c:2226:     if (!tags.Dancer && !tags.Lord && !tags.Manakete && !tags.Thief && !tags.Pegasi && !tags.Wyvern && !tags.Mounted &&
	cmp	r7, #0	@ MEM[(struct TagsStruct *)_230],
	bne	.LCB3575	@
	b	.L603	@long jump	@
.LCB3575:
@ Patches/../C_code.c:2316:     return isDancer && tags.Dancer;
	cmp	r1, #0	@ _91,
	bne	.L604		@,
.L548:
	str	r2, [sp, #12]	@ tags, MEM[(struct TagsStruct *)_230]
@ Patches/../C_code.c:2217:     if (tags.Dancer && tags.Lord && tags.Manakete && tags.Thief && tags.Pegasi && tags.Wyvern && tags.Mounted &&
	ldrb	r0, [r3, #2]	@ MEM[(struct TagsStruct *)_230], MEM[(struct TagsStruct *)_230]
	str	r2, [sp, #8]	@ tags, MEM[(struct TagsStruct *)_226]
	cmp	r0, #255	@ MEM[(struct TagsStruct *)_230],
	beq	.L549		@,
.L612:
@ Patches/../C_code.c:2324:     u32 attr = table->attributes | ctable->attributes;
	ldr	r7, [r5, #40]	@ ctable_15(D)->attributes, ctable_15(D)->attributes
	ldr	r1, [r4, #40]	@ table_14(D)->attributes, table_14(D)->attributes
	orrs	r1, r7	@ attr, ctable_15(D)->attributes
	movs	r7, #128	@ tmp424,
	lsls	r7, r7, #5	@ tmp424, tmp424,
	ands	r1, r7	@ _80, tmp424
@ Patches/../C_code.c:2226:     if (!tags.Dancer && !tags.Lord && !tags.Manakete && !tags.Thief && !tags.Pegasi && !tags.Wyvern && !tags.Mounted &&
	cmp	r0, #0	@ MEM[(struct TagsStruct *)_230],
	bne	.LCB3592	@
	b	.L605	@long jump	@
.LCB3592:
@ Patches/../C_code.c:2330:     return isPegasi && tags.Pegasi;
	cmp	r1, #0	@ _80,
	bne	.L606		@,
.L552:
	str	r2, [sp, #12]	@ tags, MEM[(struct TagsStruct *)_230]
@ Patches/../C_code.c:2217:     if (tags.Dancer && tags.Lord && tags.Manakete && tags.Thief && tags.Pegasi && tags.Wyvern && tags.Mounted &&
	ldrb	r0, [r3, #2]	@ MEM[(struct TagsStruct *)_230], MEM[(struct TagsStruct *)_230]
	str	r2, [sp, #8]	@ tags, MEM[(struct TagsStruct *)_226]
	cmp	r0, #255	@ MEM[(struct TagsStruct *)_230],
	beq	.L553		@,
.L611:
@ Patches/../C_code.c:2337:     u32 attr = table->attributes | ctable->attributes;
	ldr	r7, [r5, #40]	@ ctable_15(D)->attributes, ctable_15(D)->attributes
	ldr	r1, [r4, #40]	@ table_14(D)->attributes, table_14(D)->attributes
	orrs	r1, r7	@ attr, ctable_15(D)->attributes
	movs	r7, #128	@ tmp451,
	lsls	r7, r7, #4	@ tmp451, tmp451,
	ands	r1, r7	@ _69, tmp451
@ Patches/../C_code.c:2226:     if (!tags.Dancer && !tags.Lord && !tags.Manakete && !tags.Thief && !tags.Pegasi && !tags.Wyvern && !tags.Mounted &&
	cmp	r0, #0	@ MEM[(struct TagsStruct *)_230],
	bne	.LCB3609	@
	b	.L607	@long jump	@
.LCB3609:
@ Patches/../C_code.c:2343:     return isWyvern && tags.Wyvern;
	cmp	r1, #0	@ _69,
	bne	.L608		@,
.L556:
	str	r2, [sp, #12]	@ tags, MEM[(struct TagsStruct *)_230]
	str	r2, [sp, #8]	@ tags, MEM[(struct TagsStruct *)_226]
@ Patches/../C_code.c:2217:     if (tags.Dancer && tags.Lord && tags.Manakete && tags.Thief && tags.Pegasi && tags.Wyvern && tags.Mounted &&
	ldrb	r2, [r3, #2]	@ MEM[(struct TagsStruct *)_230], MEM[(struct TagsStruct *)_230]
	cmp	r2, #255	@ MEM[(struct TagsStruct *)_230],
	beq	.L557		@,
.L610:
@ Patches/../C_code.c:2351:     u32 attr = table->attributes | ctable->attributes;
	ldr	r1, [r5, #40]	@ ctable_15(D)->attributes, ctable_15(D)->attributes
	ldr	r3, [r4, #40]	@ table_14(D)->attributes, table_14(D)->attributes
	orrs	r3, r1	@ attr, ctable_15(D)->attributes
	movs	r1, #128	@ tmp478,
	lsls	r1, r1, #3	@ tmp478, tmp478,
	ands	r3, r1	@ _58, tmp478
@ Patches/../C_code.c:2226:     if (!tags.Dancer && !tags.Lord && !tags.Manakete && !tags.Thief && !tags.Pegasi && !tags.Wyvern && !tags.Mounted &&
	cmp	r2, #0	@ MEM[(struct TagsStruct *)_230],
	bne	.LCB3626	@
	b	.L609	@long jump	@
.LCB3626:
@ Patches/../C_code.c:2357:     return isMount && tags.Mounted;
	cmp	r3, #0	@ _58,
	beq	.L560		@,
@ Patches/../C_code.c:2357:     return isMount && tags.Mounted;
	mov	r3, sp	@ tmp544,
	ldrb	r3, [r3, #10]	@ MEM[(struct TagsStruct *)_226], MEM[(struct TagsStruct *)_226]
	lsls	r3, r3, #25	@ tmp492, MEM[(struct TagsStruct *)_226],
	lsrs	r3, r3, #31	@ tmp493, tmp492,
	orrs	r6, r3	@ _130, tmp493
.L560:
@ Patches/../C_code.c:2400:     attrTags |= DoesCharMatchArmour(table, ctable, tags);
	movs	r1, r5	@, ctable
	movs	r0, r4	@, table
	ldr	r2, [sp, #4]	@, tags
	bl	DoesCharMatchArmour		@
@ Patches/../C_code.c:2402:     result = result && attrTags;
	orrs	r0, r6	@ tmp496, _130
	subs	r3, r0, #1	@ tmp499, tmp496
	sbcs	r0, r0, r3	@ tmp498, tmp496, tmp499
	mov	r3, r8	@ prephitmp_217, prephitmp_217
	ands	r0, r3	@ tmp500, prephitmp_217
@ Patches/../C_code.c:2404:     return !result;
	movs	r3, #1	@ tmp506,
	eors	r0, r3	@ tmp495, tmp506
@ Patches/../C_code.c:2405: }
	add	sp, sp, #16	@,,
	@ sp needed	@
	pop	{r7}
	mov	r8, r7
	pop	{r4, r5, r6, r7}
	pop	{r1}
	bx	r1
.L608:
@ Patches/../C_code.c:2343:     return isWyvern && tags.Wyvern;
	mov	r1, sp	@ tmp543,
	str	r2, [sp, #12]	@ tags, MEM[(struct TagsStruct *)_230]
	ldrb	r1, [r1, #10]	@ MEM[(struct TagsStruct *)_226], MEM[(struct TagsStruct *)_226]
	str	r2, [sp, #8]	@ tags, MEM[(struct TagsStruct *)_226]
	lsls	r1, r1, #26	@ tmp465, MEM[(struct TagsStruct *)_226],
@ Patches/../C_code.c:2217:     if (tags.Dancer && tags.Lord && tags.Manakete && tags.Thief && tags.Pegasi && tags.Wyvern && tags.Mounted &&
	ldrb	r2, [r3, #2]	@ MEM[(struct TagsStruct *)_230], MEM[(struct TagsStruct *)_230]
@ Patches/../C_code.c:2343:     return isWyvern && tags.Wyvern;
	lsrs	r1, r1, #31	@ tmp466, tmp465,
	orrs	r6, r1	@ _130, tmp466
@ Patches/../C_code.c:2217:     if (tags.Dancer && tags.Lord && tags.Manakete && tags.Thief && tags.Pegasi && tags.Wyvern && tags.Mounted &&
	cmp	r2, #255	@ MEM[(struct TagsStruct *)_230],
	bne	.L610		@,
.L557:
@ Patches/../C_code.c:2349:         return true;
	movs	r6, #1	@ _130,
	b	.L560		@
.L606:
@ Patches/../C_code.c:2330:     return isPegasi && tags.Pegasi;
	mov	r1, sp	@ tmp538,
	str	r2, [sp, #12]	@ tags, MEM[(struct TagsStruct *)_230]
	ldrb	r1, [r1, #10]	@ MEM[(struct TagsStruct *)_226], MEM[(struct TagsStruct *)_226]
@ Patches/../C_code.c:2217:     if (tags.Dancer && tags.Lord && tags.Manakete && tags.Thief && tags.Pegasi && tags.Wyvern && tags.Mounted &&
	ldrb	r0, [r3, #2]	@ MEM[(struct TagsStruct *)_230], MEM[(struct TagsStruct *)_230]
@ Patches/../C_code.c:2330:     return isPegasi && tags.Pegasi;
	lsls	r1, r1, #27	@ tmp438, MEM[(struct TagsStruct *)_226],
	lsrs	r1, r1, #31	@ tmp439, tmp438,
	str	r2, [sp, #8]	@ tags, MEM[(struct TagsStruct *)_226]
	orrs	r6, r1	@ _130, tmp439
@ Patches/../C_code.c:2217:     if (tags.Dancer && tags.Lord && tags.Manakete && tags.Thief && tags.Pegasi && tags.Wyvern && tags.Mounted &&
	cmp	r0, #255	@ MEM[(struct TagsStruct *)_230],
	bne	.L611		@,
.L553:
@ Patches/../C_code.c:2335:         return true;
	movs	r6, #1	@ _130,
	b	.L556		@
.L604:
@ Patches/../C_code.c:2316:     return isDancer && tags.Dancer;
	mov	r1, sp	@ tmp533,
	str	r2, [sp, #12]	@ tags, MEM[(struct TagsStruct *)_230]
	ldrb	r1, [r1, #10]	@ MEM[(struct TagsStruct *)_226], MEM[(struct TagsStruct *)_226]
@ Patches/../C_code.c:2217:     if (tags.Dancer && tags.Lord && tags.Manakete && tags.Thief && tags.Pegasi && tags.Wyvern && tags.Mounted &&
	ldrb	r0, [r3, #2]	@ MEM[(struct TagsStruct *)_230], MEM[(struct TagsStruct *)_230]
@ Patches/../C_code.c:2316:     return isDancer && tags.Dancer;
	lsls	r1, r1, #29	@ tmp411, MEM[(struct TagsStruct *)_226],
	lsrs	r1, r1, #31	@ tmp412, tmp411,
	str	r2, [sp, #8]	@ tags, MEM[(struct TagsStruct *)_226]
	orrs	r6, r1	@ _130, tmp412
@ Patches/../C_code.c:2217:     if (tags.Dancer && tags.Lord && tags.Manakete && tags.Thief && tags.Pegasi && tags.Wyvern && tags.Mounted &&
	cmp	r0, #255	@ MEM[(struct TagsStruct *)_230],
	bne	.L612		@,
.L549:
@ Patches/../C_code.c:2322:         return true;
	movs	r6, #1	@ _130,
	b	.L552		@
.L602:
@ Patches/../C_code.c:2274:     return isManakete && tags.Manakete;
	mov	r1, sp	@ tmp532,
	str	r2, [sp, #12]	@ tags, MEM[(struct TagsStruct *)_230]
	ldrb	r1, [r1, #10]	@ MEM[(struct TagsStruct *)_226], MEM[(struct TagsStruct *)_226]
@ Patches/../C_code.c:2217:     if (tags.Dancer && tags.Lord && tags.Manakete && tags.Thief && tags.Pegasi && tags.Wyvern && tags.Mounted &&
	ldrb	r7, [r3, #2]	@ MEM[(struct TagsStruct *)_230], MEM[(struct TagsStruct *)_230]
@ Patches/../C_code.c:2274:     return isManakete && tags.Manakete;
	lsls	r1, r1, #28	@ tmp384, MEM[(struct TagsStruct *)_226],
	lsrs	r1, r1, #31	@ tmp385, tmp384,
	str	r2, [sp, #8]	@ tags, MEM[(struct TagsStruct *)_226]
	orrs	r6, r1	@ _130, tmp385
@ Patches/../C_code.c:2217:     if (tags.Dancer && tags.Lord && tags.Manakete && tags.Thief && tags.Pegasi && tags.Wyvern && tags.Mounted &&
	cmp	r7, #255	@ MEM[(struct TagsStruct *)_230],
	beq	.LCB3735	@
	b	.L613	@long jump	@
.LCB3735:
.L545:
@ Patches/../C_code.c:2308:         return true;
	movs	r6, #1	@ _130,
	b	.L548		@
.L600:
@ Patches/../C_code.c:2302:     return isLord && tags.Lord;
	mov	r1, sp	@ tmp531,
	ldrb	r0, [r1, #10]	@ MEM[(struct TagsStruct *)_226], MEM[(struct TagsStruct *)_226]
	movs	r1, #1	@ tmp356,
	str	r2, [sp, #12]	@ tags, MEM[(struct TagsStruct *)_230]
	ands	r1, r0	@ tmp357, MEM[(struct TagsStruct *)_226]
@ Patches/../C_code.c:2217:     if (tags.Dancer && tags.Lord && tags.Manakete && tags.Thief && tags.Pegasi && tags.Wyvern && tags.Mounted &&
	ldrb	r0, [r3, #2]	@ MEM[(struct TagsStruct *)_230], MEM[(struct TagsStruct *)_230]
	str	r2, [sp, #8]	@ tags, MEM[(struct TagsStruct *)_226]
	orrs	r6, r1	@ _130, tmp357
	cmp	r0, #255	@ MEM[(struct TagsStruct *)_230],
	beq	.LCB3753	@
	b	.L614	@long jump	@
.LCB3753:
.L541:
@ Patches/../C_code.c:2266:         return true;
	movs	r6, #1	@ _130,
	b	.L544		@
.L598:
@ Patches/../C_code.c:2288:     return isThief && tags.Thief;
	mov	r1, sp	@ tmp530,
	str	r2, [sp, #12]	@ tags, MEM[(struct TagsStruct *)_230]
	ldrb	r6, [r1, #10]	@ MEM[(struct TagsStruct *)_226], MEM[(struct TagsStruct *)_226]
@ Patches/../C_code.c:2217:     if (tags.Dancer && tags.Lord && tags.Manakete && tags.Thief && tags.Pegasi && tags.Wyvern && tags.Mounted &&
	ldrb	r0, [r3, #2]	@ MEM[(struct TagsStruct *)_230], MEM[(struct TagsStruct *)_230]
@ Patches/../C_code.c:2288:     return isThief && tags.Thief;
	lsls	r6, r6, #30	@ tmp328, MEM[(struct TagsStruct *)_226],
	str	r2, [sp, #8]	@ tags, MEM[(struct TagsStruct *)_226]
	lsrs	r6, r6, #31	@ _130, tmp328,
@ Patches/../C_code.c:2217:     if (tags.Dancer && tags.Lord && tags.Manakete && tags.Thief && tags.Pegasi && tags.Wyvern && tags.Mounted &&
	cmp	r0, #255	@ MEM[(struct TagsStruct *)_230],
	beq	.LCB3771	@
	b	.L615	@long jump	@
.LCB3771:
.L537:
@ Patches/../C_code.c:2294:         return true;
	movs	r6, #1	@ _130,
	b	.L540		@
.L527:
@ Patches/../C_code.c:2176:     if ((!(attr & CA_FEMALE)) && tags.Male)
	lsls	r0, r0, #29	@ tmp523, _34,
	bmi	.LCB3783	@
	b	.L596	@long jump	@
.LCB3783:
.L528:
@ Patches/../C_code.c:2190:     if (tags.Promoted == tags.Unpromoted)
	movs	r7, #1	@ tmp264,
	add	r0, sp, #4	@ tmp247,,
	ldrb	r0, [r0]	@ tags, tags
	ldr	r2, [sp, #4]	@ tags, tags
	lsls	r6, r0, #30	@ tmp254, tags,
	str	r2, [sp, #12]	@ tags, MEM[(struct TagsStruct *)_230]
	lsrs	r6, r6, #31	@ tmp261, tmp254,
	ands	r0, r7	@ tmp263, tmp264
	cmp	r6, r0	@ tmp261, tmp263
	beq	.L525		@,
@ Patches/../C_code.c:2194:     return (isPromoted && tags.Promoted) || (!isPromoted && tags.Unpromoted);
	lsls	r1, r1, #23	@ tmp524, attr,
	bpl	.L531		@,
@ Patches/../C_code.c:2194:     return (isPromoted && tags.Promoted) || (!isPromoted && tags.Unpromoted);
	ldrb	r1, [r3]	@ MEM[(struct TagsStruct *)_230], MEM[(struct TagsStruct *)_230]
	lsls	r1, r1, #30	@ tmp525, MEM[(struct TagsStruct *)_230],
	bmi	.LCB3809	@
	b	.L523	@long jump	@
.LCB3809:
.L525:
@ Patches/../C_code.c:2391:     result = result && DoesCharMatchPromotion(table, ctable, tags);
	movs	r1, #1	@ prephitmp_217,
	str	r2, [sp, #12]	@ tags, MEM[(struct TagsStruct *)_230]
@ Patches/../C_code.c:2217:     if (tags.Dancer && tags.Lord && tags.Manakete && tags.Thief && tags.Pegasi && tags.Wyvern && tags.Mounted &&
	ldrb	r6, [r3, #2]	@ MEM[(struct TagsStruct *)_230], MEM[(struct TagsStruct *)_230]
@ Patches/../C_code.c:2391:     result = result && DoesCharMatchPromotion(table, ctable, tags);
	mov	r8, r1	@ prephitmp_217, prephitmp_217
	str	r2, [sp, #8]	@ tags, MEM[(struct TagsStruct *)_226]
@ Patches/../C_code.c:2217:     if (tags.Dancer && tags.Lord && tags.Manakete && tags.Thief && tags.Pegasi && tags.Wyvern && tags.Mounted &&
	cmp	r6, #255	@ MEM[(struct TagsStruct *)_230],
	beq	.LCB3817	@
	b	.L616	@long jump	@
.LCB3817:
.L533:
@ Patches/../C_code.c:2280:         return true;
	movs	r6, #1	@ _130,
	b	.L536		@
.L597:
@ Patches/../C_code.c:2286:         return !isThief;
	rsbs	r6, r0, #0	@ _130, _124
	adcs	r6, r6, r0	@ _130, _124
	b	.L536		@
.L599:
@ Patches/../C_code.c:2300:         return !isLord;
	rsbs	r0, r1, #0	@ tmp349, _113
	adcs	r1, r1, r0	@ tmp348, _113, tmp349
	orrs	r6, r1	@ _130, tmp348
	b	.L540		@
.L601:
@ Patches/../C_code.c:2272:         return !isManakete;
	rsbs	r0, r1, #0	@ tmp378, _102
	adcs	r1, r1, r0	@ tmp377, _102, tmp378
	orrs	r6, r1	@ _130, tmp377
	b	.L544		@
.L607:
@ Patches/../C_code.c:2341:         return !isWyvern;
	rsbs	r0, r1, #0	@ tmp459, _69
	adcs	r1, r1, r0	@ tmp458, _69, tmp459
	orrs	r6, r1	@ _130, tmp458
	b	.L556		@
.L609:
@ Patches/../C_code.c:2355:         return !isMount;
	rsbs	r2, r3, #0	@ tmp486, _58
	adcs	r3, r3, r2	@ tmp485, _58, tmp486
	orrs	r6, r3	@ _130, tmp485
	b	.L560		@
.L605:
@ Patches/../C_code.c:2328:         return !isPegasi;
	rsbs	r0, r1, #0	@ tmp432, _80
	adcs	r1, r1, r0	@ tmp431, _80, tmp432
	orrs	r6, r1	@ _130, tmp431
	b	.L552		@
.L603:
@ Patches/../C_code.c:2314:         return !isDancer;
	rsbs	r0, r1, #0	@ tmp405, _91
	adcs	r1, r1, r0	@ tmp404, _91, tmp405
	orrs	r6, r1	@ _130, tmp404
	b	.L548		@
.L531:
@ Patches/../C_code.c:2194:     return (isPromoted && tags.Promoted) || (!isPromoted && tags.Unpromoted);
	ldrb	r1, [r3]	@ MEM[(struct TagsStruct *)_230], MEM[(struct TagsStruct *)_230]
	lsls	r1, r1, #31	@ tmp526, MEM[(struct TagsStruct *)_230],
	bmi	.LCB3872	@
	b	.L523	@long jump	@
.LCB3872:
	b	.L525		@
.L618:
	.align	2
.L617:
	.word	TagValues
	.word	4097
	.size	FilterCharOut, .-FilterCharOut
	.align	1
	.p2align 2,,3
	.global	ShouldDoJankyPalettes
	.syntax unified
	.code	16
	.thumb_func
	.type	ShouldDoJankyPalettes, %function
ShouldDoJankyPalettes:
	@ Function supports interworking.
	@ args = 0, pretend = 0, frame = 0
	@ frame_needed = 0, uses_anonymous_args = 0
	@ link register save eliminated.
@ Patches/../C_code.c:2866:     return RandBitflags->colours == 2;
	movs	r0, #7	@ tmp127,
@ Patches/../C_code.c:2867: }
	@ sp needed	@
@ Patches/../C_code.c:2866:     return RandBitflags->colours == 2;
	ldr	r3, .L620	@ tmp121,
	ldr	r3, [r3]	@ RandBitflags, RandBitflags
	ldrb	r3, [r3, #2]	@ *RandBitflags.94_1, *RandBitflags.94_1
	ands	r0, r3	@ tmp129, *RandBitflags.94_1
	subs	r0, r0, #2	@ tmp132,
	rsbs	r3, r0, #0	@ tmp133, tmp132
	adcs	r0, r0, r3	@ tmp131, tmp132, tmp133
@ Patches/../C_code.c:2867: }
	bx	lr
.L621:
	.align	2
.L620:
	.word	RandBitflags
	.size	ShouldDoJankyPalettes, .-ShouldDoJankyPalettes
	.align	1
	.p2align 2,,3
	.global	ShouldRandomizeBGM
	.syntax unified
	.code	16
	.thumb_func
	.type	ShouldRandomizeBGM, %function
ShouldRandomizeBGM:
	@ Function supports interworking.
	@ args = 0, pretend = 0, frame = 0
	@ frame_needed = 0, uses_anonymous_args = 0
	@ link register save eliminated.
@ Patches/../C_code.c:2873:     if (NeverRandomizeBGM)
	ldr	r3, .L625	@ tmp119,
@ Patches/../C_code.c:2873:     if (NeverRandomizeBGM)
	ldr	r3, [r3]	@ NeverRandomizeBGM, NeverRandomizeBGM
	cmp	r3, #0	@ NeverRandomizeBGM,
	bne	.L624		@,
@ Patches/../C_code.c:2877:     if (!RandBitflags->randMusic)
	movs	r0, #63	@ tmp128,
@ Patches/../C_code.c:2877:     if (!RandBitflags->randMusic)
	ldr	r3, .L625+4	@ tmp122,
	ldr	r3, [r3]	@ RandBitflags, RandBitflags
@ Patches/../C_code.c:2877:     if (!RandBitflags->randMusic)
	ldrb	r3, [r3, #1]	@ *RandBitflags.96_5, *RandBitflags.96_5
	cmp	r0, r3	@ tmp128, *RandBitflags.96_5
	sbcs	r0, r0, r0	@ tmp131
	rsbs	r0, r0, #0	@ <retval>, tmp131
.L622:
@ Patches/../C_code.c:2882: }
	@ sp needed	@
	bx	lr
.L624:
@ Patches/../C_code.c:2875:         return false;
	movs	r0, #0	@ <retval>,
	b	.L622		@
.L626:
	.align	2
.L625:
	.word	NeverRandomizeBGM
	.word	RandBitflags
	.size	ShouldRandomizeBGM, .-ShouldRandomizeBGM
	.align	1
	.p2align 2,,3
	.global	GetItemAttributes
	.syntax unified
	.code	16
	.thumb_func
	.type	GetItemAttributes, %function
GetItemAttributes:
	@ Function supports interworking.
	@ args = 0, pretend = 0, frame = 0
	@ frame_needed = 0, uses_anonymous_args = 0
	push	{r4, r5, r6, r7, lr}	@
@ Patches/../C_code.c:2886:     u32 attr = GetItemData(item & 0xFF)->attributes;
	movs	r5, #255	@ tmp143,
@ Patches/../C_code.c:2885: { // 801727C
	mov	lr, r8	@,
@ Patches/../C_code.c:2886:     u32 attr = GetItemData(item & 0xFF)->attributes;
	ldr	r3, .L648	@ tmp198,
	ands	r5, r0	@ _1, tmp205
@ Patches/../C_code.c:2885: { // 801727C
	push	{lr}	@
@ Patches/../C_code.c:2886:     u32 attr = GetItemData(item & 0xFF)->attributes;
	movs	r0, r5	@, _1
	mov	r8, r3	@ tmp198, tmp198
	bl	.L24		@
@ Patches/../C_code.c:2886:     u32 attr = GetItemData(item & 0xFF)->attributes;
	ldr	r6, [r0, #8]	@ attr, _2->attributes
@ Patches/../C_code.c:2887:     int wepType = GetItemData(item & 0xFF)->weaponType;
	movs	r0, r5	@, _1
	bl	.L67		@
@ Patches/../C_code.c:2888:     if ((RandBitflags->itemDur == 2) && ((attr & (IA_WEAPON | IA_STAFF)) || (wepType == 0xC)))
	ldr	r7, .L648+4	@ tmp199,
	ldr	r3, [r7]	@ RandBitflags, RandBitflags
	ldrb	r2, [r3, #2]	@ *RandBitflags.97_5, *RandBitflags.97_5
	movs	r3, #96	@ tmp153,
@ Patches/../C_code.c:2887:     int wepType = GetItemData(item & 0xFF)->weaponType;
	ldrb	r4, [r0, #7]	@ wepType,
@ Patches/../C_code.c:2888:     if ((RandBitflags->itemDur == 2) && ((attr & (IA_WEAPON | IA_STAFF)) || (wepType == 0xC)))
	ands	r3, r2	@ _7, *RandBitflags.97_5
@ Patches/../C_code.c:2888:     if ((RandBitflags->itemDur == 2) && ((attr & (IA_WEAPON | IA_STAFF)) || (wepType == 0xC)))
	cmp	r3, #64	@ _7,
	beq	.L646		@,
@ Patches/../C_code.c:2892:     if (RandBitflags->itemDur == 3)
	cmp	r3, #96	@ _7,
	bne	.L629		@,
@ Patches/../C_code.c:2894:         attr |= IA_UNBREAKABLE;
	subs	r3, r3, #88	@ tmp170,
	orrs	r6, r3	@ attr, tmp170
.L629:
@ Patches/../C_code.c:2896:     int rank = GetItemData(item & 0xFF)->weaponRank;
	movs	r0, r5	@, _1
@ Patches/../C_code.c:2897:     int maxRank = 1;
	subs	r4, r4, #7	@ tmp201,
@ Patches/../C_code.c:2896:     int rank = GetItemData(item & 0xFF)->weaponRank;
	bl	.L67		@
@ Patches/../C_code.c:2897:     int maxRank = 1;
	rsbs	r3, r4, #0	@ tmp202, tmp201
	adcs	r4, r4, r3	@ tmp200, tmp201, tmp202
@ Patches/../C_code.c:2903:     if ((RandBitflags->itemDur == 1) &&
	ldr	r2, [r7]	@ RandBitflags, RandBitflags
@ Patches/../C_code.c:2897:     int maxRank = 1;
	movs	r3, #50	@ tmp204,
@ Patches/../C_code.c:2903:     if ((RandBitflags->itemDur == 1) &&
	ldrb	r1, [r2, #2]	@ *RandBitflags.99_11, *RandBitflags.99_11
@ Patches/../C_code.c:2903:     if ((RandBitflags->itemDur == 1) &&
	movs	r2, #96	@ tmp179,
@ Patches/../C_code.c:2897:     int maxRank = 1;
	rsbs	r4, r4, #0	@ tmp203, tmp200
	ands	r3, r4	@ maxRank, tmp203
	adds	r3, r3, #1	@ maxRank,
@ Patches/../C_code.c:2903:     if ((RandBitflags->itemDur == 1) &&
	ands	r2, r1	@ tmp180, *RandBitflags.99_11
	cmp	r2, #32	@ tmp180,
	beq	.L647		@,
.L631:
@ Patches/../C_code.c:2909: }
	@ sp needed	@
	movs	r0, r6	@, attr
	pop	{r7}
	mov	r8, r7
	pop	{r4, r5, r6, r7}
	pop	{r1}
	bx	r1
.L646:
@ Patches/../C_code.c:2888:     if ((RandBitflags->itemDur == 2) && ((attr & (IA_WEAPON | IA_STAFF)) || (wepType == 0xC)))
	subs	r3, r3, #59	@ tmp155,
	ands	r3, r6	@ tmp156, attr
@ Patches/../C_code.c:2888:     if ((RandBitflags->itemDur == 2) && ((attr & (IA_WEAPON | IA_STAFF)) || (wepType == 0xC)))
	subs	r2, r3, #1	@ tmp159, tmp156
	sbcs	r3, r3, r2	@ tmp158, tmp156, tmp159
@ Patches/../C_code.c:2888:     if ((RandBitflags->itemDur == 2) && ((attr & (IA_WEAPON | IA_STAFF)) || (wepType == 0xC)))
	movs	r2, r4	@ tmp162, wepType
	subs	r2, r2, #12	@ tmp162,
	rsbs	r1, r2, #0	@ tmp163, tmp162
	adcs	r2, r2, r1	@ tmp161, tmp162, tmp163
	orrs	r3, r2	@ tmp165, tmp161
	lsls	r3, r3, #3	@ tmp169, tmp165,
	orrs	r6, r3	@ attr, tmp169
	b	.L629		@
.L647:
@ Patches/../C_code.c:2903:     if ((RandBitflags->itemDur == 1) &&
	cmp	r5, #108	@ _1,
	beq	.L632		@,
@ Patches/../C_code.c:2904:         (((item & 0xFF) == VULNERARY) || ((attr & (IA_WEAPON | IA_STAFF)) && (((rank <= maxRank) && (rank > 0))))))
	subs	r2, r2, #27	@ tmp182,
@ Patches/../C_code.c:2904:         (((item & 0xFF) == VULNERARY) || ((attr & (IA_WEAPON | IA_STAFF)) && (((rank <= maxRank) && (rank > 0))))))
	tst	r2, r6	@ tmp182, attr
	beq	.L631		@,
@ Patches/../C_code.c:2896:     int rank = GetItemData(item & 0xFF)->weaponRank;
	ldrb	r2, [r0, #28]	@ rank,
@ Patches/../C_code.c:2904:         (((item & 0xFF) == VULNERARY) || ((attr & (IA_WEAPON | IA_STAFF)) && (((rank <= maxRank) && (rank > 0))))))
	cmp	r3, r2	@ maxRank, rank
	bcc	.L631		@,
	cmp	r2, #0	@ rank,
	beq	.L631		@,
.L632:
@ Patches/../C_code.c:2906:         attr |= IA_UNBREAKABLE;
	movs	r3, #8	@ tmp196,
	orrs	r6, r3	@ attr, tmp196
	b	.L631		@
.L649:
	.align	2
.L648:
	.word	GetItemData
	.word	RandBitflags
	.size	GetItemAttributes, .-GetItemAttributes
	.align	1
	.p2align 2,,3
	.global	GetItemAfterUse
	.syntax unified
	.code	16
	.thumb_func
	.type	GetItemAfterUse, %function
GetItemAfterUse:
	@ Function supports interworking.
	@ args = 0, pretend = 0, frame = 0
	@ frame_needed = 0, uses_anonymous_args = 0
	push	{r4, lr}	@
@ Patches/../C_code.c:2912: { // 16AEC 8016730 8016928
	movs	r4, r0	@ item, tmp124
@ Patches/../C_code.c:2913:     int attr = GetItemAttributes(item);
	bl	GetItemAttributes		@
@ Patches/../C_code.c:2915:     if (attr & IA_UNBREAKABLE)
	lsls	r0, r0, #28	@ tmp126, tmp125,
	bmi	.L654		@,
@ Patches/../C_code.c:2920:     item -= (1 << 8); // lose one use
	subs	r4, r4, #1	@ item,
	subs	r4, r4, #255	@ item,
@ Patches/../C_code.c:2922:     if (item < (1 << 8))
	cmp	r4, #255	@ item,
	ble	.L653		@,
@ Patches/../C_code.c:2925:     return item; // return used item
	lsls	r4, r4, #16	@ tmp122, item,
	lsrs	r0, r4, #16	@ <retval>, tmp122,
.L652:
@ Patches/../C_code.c:2926: }
	@ sp needed	@
	pop	{r4}
	pop	{r1}
	bx	r1
.L653:
@ Patches/../C_code.c:2923:         return 0; // return no item if uses < 0
	movs	r0, #0	@ <retval>,
	b	.L652		@
.L654:
@ Patches/../C_code.c:2917:         return item;
	lsls	r0, r4, #16	@ tmp121, item,
	lsrs	r0, r0, #16	@ <retval>, tmp121,
	b	.L652		@
	.size	GetItemAfterUse, .-GetItemAfterUse
	.align	1
	.p2align 2,,3
	.global	GetItemUses
	.syntax unified
	.code	16
	.thumb_func
	.type	GetItemUses, %function
GetItemUses:
	@ Function supports interworking.
	@ args = 0, pretend = 0, frame = 0
	@ frame_needed = 0, uses_anonymous_args = 0
	push	{r4, lr}	@
@ Patches/../C_code.c:2929: {
	movs	r4, r0	@ item, tmp138
@ Patches/../C_code.c:2930:     if ((GetItemAttributes(item) & IA_UNBREAKABLE) || RandBitflags->itemDur)
	bl	GetItemAttributes		@
@ Patches/../C_code.c:2930:     if ((GetItemAttributes(item) & IA_UNBREAKABLE) || RandBitflags->itemDur)
	lsls	r0, r0, #28	@ tmp140, tmp139,
	bmi	.L658		@,
@ Patches/../C_code.c:2930:     if ((GetItemAttributes(item) & IA_UNBREAKABLE) || RandBitflags->itemDur)
	movs	r2, #96	@ tmp131,
	ldr	r3, .L659	@ tmp125,
	ldr	r3, [r3]	@ RandBitflags, RandBitflags
	ldrb	r3, [r3, #2]	@ *RandBitflags.100_3, *RandBitflags.100_3
	tst	r2, r3	@ tmp131, *RandBitflags.100_3
	bne	.L658		@,
@ Patches/../C_code.c:2933:         return (item & 0xFF00) >> 8;
	lsls	r0, r4, #16	@ tmp136, item,
	lsrs	r0, r0, #24	@ <retval>, tmp136,
.L655:
@ Patches/../C_code.c:2934: }
	@ sp needed	@
	pop	{r4}
	pop	{r1}
	bx	r1
.L658:
@ Patches/../C_code.c:2931:         return 0xFF;
	movs	r0, #255	@ <retval>,
	b	.L655		@
.L660:
	.align	2
.L659:
	.word	RandBitflags
	.size	GetItemUses, .-GetItemUses
	.align	1
	.p2align 2,,3
	.global	GetItemMaxUses
	.syntax unified
	.code	16
	.thumb_func
	.type	GetItemMaxUses, %function
GetItemMaxUses:
	@ Function supports interworking.
	@ args = 0, pretend = 0, frame = 0
	@ frame_needed = 0, uses_anonymous_args = 0
	push	{r4, lr}	@
@ Patches/../C_code.c:2937: {
	movs	r4, r0	@ item, tmp141
@ Patches/../C_code.c:2938:     if ((GetItemAttributes(item) & IA_UNBREAKABLE) || RandBitflags->itemDur)
	bl	GetItemAttributes		@
@ Patches/../C_code.c:2938:     if ((GetItemAttributes(item) & IA_UNBREAKABLE) || RandBitflags->itemDur)
	lsls	r0, r0, #28	@ tmp144, tmp142,
	bmi	.L663		@,
@ Patches/../C_code.c:2938:     if ((GetItemAttributes(item) & IA_UNBREAKABLE) || RandBitflags->itemDur)
	movs	r2, #96	@ tmp133,
	ldr	r3, .L666	@ tmp127,
	ldr	r3, [r3]	@ RandBitflags, RandBitflags
	ldrb	r3, [r3, #2]	@ *RandBitflags.101_3, *RandBitflags.101_3
@ Patches/../C_code.c:2939:         return 0xFF;
	movs	r0, #255	@ <retval>,
@ Patches/../C_code.c:2938:     if ((GetItemAttributes(item) & IA_UNBREAKABLE) || RandBitflags->itemDur)
	tst	r2, r3	@ tmp133, *RandBitflags.101_3
	beq	.L665		@,
.L661:
@ Patches/../C_code.c:2942: }
	@ sp needed	@
	pop	{r4}
	pop	{r1}
	bx	r1
.L665:
@ Patches/../C_code.c:2941:         return GetItemData(item & 0xFF)->maxUses;
	ldr	r3, .L666+4	@ tmp139,
	ands	r0, r4	@ tmp138, item
	bl	.L24		@
@ Patches/../C_code.c:2941:         return GetItemData(item & 0xFF)->maxUses;
	ldrb	r0, [r0, #20]	@ <retval>,
@ Patches/../C_code.c:2941:         return GetItemData(item & 0xFF)->maxUses;
	b	.L661		@
.L663:
@ Patches/../C_code.c:2939:         return 0xFF;
	movs	r0, #255	@ <retval>,
	b	.L661		@
.L667:
	.align	2
.L666:
	.word	RandBitflags
	.word	GetItemData
	.size	GetItemMaxUses, .-GetItemMaxUses
	.align	1
	.p2align 2,,3
	.global	BuildTracklist
	.syntax unified
	.code	16
	.thumb_func
	.type	BuildTracklist, %function
BuildTracklist:
	@ Function supports interworking.
	@ args = 0, pretend = 0, frame = 8
	@ frame_needed = 0, uses_anonymous_args = 0
	push	{r4, r5, r6, r7, lr}	@
	mov	r5, r8	@,
	mov	lr, fp	@,
	mov	r7, r10	@,
	mov	r6, r9	@,
	push	{r5, r6, r7, lr}	@
@ Patches/../C_code.c:2986:     int priority_A = priority & 0xFFFF;
	lsls	r6, r2, #16	@ tmp162, priority,
@ Patches/../C_code.c:2984: {
	sub	sp, sp, #12	@,,
@ Patches/../C_code.c:2986:     int priority_A = priority & 0xFFFF;
	lsrs	r3, r6, #16	@ priority_A, tmp162,
	str	r3, [sp, #4]	@ priority_A, %sfp
@ Patches/../C_code.c:2987:     int priority_B = priority >> 16;
	asrs	r3, r2, #16	@ priority_B, priority,
@ Patches/../C_code.c:2992:         List[i] = 0;
	movs	r2, #250	@,
@ Patches/../C_code.c:2984: {
	movs	r5, r1	@ startingPoint, tmp233
@ Patches/../C_code.c:2987:     int priority_B = priority >> 16;
	mov	r8, r3	@ priority_B, priority_B
@ Patches/../C_code.c:2992:         List[i] = 0;
	movs	r1, #0	@,
	ldr	r3, .L687	@ tmp165,
	lsls	r2, r2, #2	@,,
@ Patches/../C_code.c:2984: {
	movs	r4, r0	@ List, tmp232
@ Patches/../C_code.c:2992:         List[i] = 0;
	bl	.L24		@
@ Patches/../C_code.c:2994:     struct Song * gST = *getSongTable;
	ldr	r3, .L687+4	@ tmp168,
	ldr	r3, [r3]	@ gST, getSongTable[0]
	mov	r10, r3	@ gST, gST
@ Patches/../C_code.c:2995:     for (i = startingPoint; i < 2000; ++i)
	movs	r3, #250	@ tmp169,
	lsls	r3, r3, #3	@ tmp169, tmp169,
	cmp	r5, r3	@ startingPoint, tmp169
	bge	.L672		@,
@ Patches/../C_code.c:2997:         if (List[0] >= MaxNumberOfSongs)
	movs	r7, #250	@ tmp174,
@ Patches/../C_code.c:3013:         if (BGMExceptions[i])
	ldr	r2, .L687+8	@ tmp230,
	lsls	r1, r5, #3	@ tmp170, startingPoint,
@ Patches/../C_code.c:2995:     for (i = startingPoint; i < 2000; ++i)
	movs	r0, r5	@ i, startingPoint
@ Patches/../C_code.c:3013:         if (BGMExceptions[i])
	mov	r9, r2	@ tmp230, tmp230
@ Patches/../C_code.c:2995:     for (i = startingPoint; i < 2000; ++i)
	mov	ip, r3	@ tmp231, tmp169
	add	r1, r1, r10	@ ivtmp.1387, gST
@ Patches/../C_code.c:2997:         if (List[0] >= MaxNumberOfSongs)
	lsls	r7, r7, #1	@ tmp174, tmp174,
	b	.L676		@
.L671:
@ Patches/../C_code.c:3001:         if (!gST[i].header) // no song pointer
	ldr	r3, [r1]	@ _8, MEM[(void * *)_70]
@ Patches/../C_code.c:3001:         if (!gST[i].header) // no song pointer
	cmp	r3, #0	@ _8,
	beq	.L674		@,
@ Patches/../C_code.c:3009:         if (gST[i].header == (void *)EmptyTrack2)
	ldr	r6, .L687+12	@ tmp179,
	mov	fp, r6	@ tmp179, tmp179
	add	fp, fp, r3	@ tmp179, _8
	mov	r6, fp	@ tmp179, tmp179
	cmp	r6, #0	@ tmp179,
	beq	.L675		@,
@ Patches/../C_code.c:3005:         if (gST[i].header == (void *)EmptyTrack)
	ldr	r6, .L687+16	@ tmp248,
	mov	fp, r6	@ tmp248, tmp248
	add	r3, r3, fp	@ tmp185, tmp248
@ Patches/../C_code.c:3009:         if (gST[i].header == (void *)EmptyTrack2)
	cmp	r3, #0	@ tmp185,
	beq	.L675		@,
@ Patches/../C_code.c:3013:         if (BGMExceptions[i])
	mov	r3, r9	@ tmp230, tmp230
	ldrb	r3, [r3, r0]	@ MEM[(unsigned char *)&BGMExceptions + _34 * 1], MEM[(unsigned char *)&BGMExceptions + _34 * 1]
	cmp	r3, #0	@ MEM[(unsigned char *)&BGMExceptions + _34 * 1],
	bne	.L675		@,
@ Patches/../C_code.c:3017:         if (gST[i].ms != priority_A)
	ldrh	r3, [r1, #4]	@ MEM[(short unsigned int *)_70 + 4B], MEM[(short unsigned int *)_70 + 4B]
@ Patches/../C_code.c:3017:         if (gST[i].ms != priority_A)
	ldr	r6, [sp, #4]	@ priority_A, %sfp
	cmp	r3, r6	@ MEM[(short unsigned int *)_70 + 4B], priority_A
	bne	.L675		@,
@ Patches/../C_code.c:3021:         if (gST[i].me != priority_B)
	ldrh	r3, [r1, #6]	@ MEM[(short unsigned int *)_70 + 6B], MEM[(short unsigned int *)_70 + 6B]
@ Patches/../C_code.c:3021:         if (gST[i].me != priority_B)
	cmp	r3, r8	@ MEM[(short unsigned int *)_70 + 6B], priority_B
	bne	.L675		@,
@ Patches/../C_code.c:3025:         List[0]++;
	adds	r2, r2, #1	@ tmp194,
	lsls	r3, r2, #16	@ tmp195, tmp194,
	lsrs	r3, r3, #16	@ _14, tmp195,
	strh	r3, [r4]	@ _14, *List_49(D)
@ Patches/../C_code.c:3026:         List[List[0]] = i;
	lsls	r3, r3, #1	@ tmp197, _14,
	strh	r0, [r3, r4]	@ i, *_17
.L675:
@ Patches/../C_code.c:2995:     for (i = startingPoint; i < 2000; ++i)
	adds	r0, r0, #1	@ i,
@ Patches/../C_code.c:2995:     for (i = startingPoint; i < 2000; ++i)
	adds	r1, r1, #8	@ ivtmp.1387,
	cmp	r0, ip	@ i, tmp231
	beq	.L674		@,
.L676:
@ Patches/../C_code.c:2997:         if (List[0] >= MaxNumberOfSongs)
	ldrh	r2, [r4]	@ _4, *List_49(D)
@ Patches/../C_code.c:2997:         if (List[0] >= MaxNumberOfSongs)
	cmp	r2, r7	@ _4, tmp174
	bcc	.L671		@,
.L674:
@ Patches/../C_code.c:3028:     for (i = 0; i < startingPoint; ++i)
	cmp	r5, #0	@ startingPoint,
	ble	.L673		@,
.L672:
@ Patches/../C_code.c:3030:         if (List[0] >= MaxNumberOfSongs)
	movs	r3, #250	@ tmp203,
	lsls	r3, r3, #1	@ tmp203, tmp203,
	mov	ip, r3	@ tmp203, tmp203
@ Patches/../C_code.c:3046:         if (BGMExceptions[i])
	ldr	r3, .L687+8	@ tmp229,
	mov	r2, r10	@ ivtmp.1379, gST
@ Patches/../C_code.c:2995:     for (i = startingPoint; i < 2000; ++i)
	movs	r1, #0	@ i,
@ Patches/../C_code.c:3046:         if (BGMExceptions[i])
	mov	r9, r3	@ tmp229, tmp229
	b	.L670		@
.L686:
@ Patches/../C_code.c:3034:         if (!gST[i].header) // no song pointer
	ldr	r3, [r2]	@ _23, MEM[(void * *)_78]
@ Patches/../C_code.c:3034:         if (!gST[i].header) // no song pointer
	cmp	r3, #0	@ _23,
	beq	.L673		@,
@ Patches/../C_code.c:3042:         if (gST[i].header == (void *)EmptyTrack2)
	ldr	r6, .L687+12	@ tmp251,
	adds	r7, r3, r6	@ tmp208, _23, tmp251
	cmp	r7, #0	@ tmp208,
	beq	.L677		@,
@ Patches/../C_code.c:3038:         if (gST[i].header == (void *)EmptyTrack)
	ldr	r6, .L687+16	@ tmp252,
	mov	r10, r6	@ tmp252, tmp252
	add	r3, r3, r10	@ tmp214, tmp252
@ Patches/../C_code.c:3042:         if (gST[i].header == (void *)EmptyTrack2)
	cmp	r3, #0	@ tmp214,
	beq	.L677		@,
@ Patches/../C_code.c:3046:         if (BGMExceptions[i])
	mov	r3, r9	@ tmp229, tmp229
	ldrb	r3, [r3, r1]	@ MEM[(unsigned char *)&BGMExceptions + _71 * 1], MEM[(unsigned char *)&BGMExceptions + _71 * 1]
	cmp	r3, #0	@ MEM[(unsigned char *)&BGMExceptions + _71 * 1],
	bne	.L677		@,
@ Patches/../C_code.c:3050:         if (gST[i].ms != priority_A)
	ldrh	r3, [r2, #4]	@ MEM[(short unsigned int *)_78 + 4B], MEM[(short unsigned int *)_78 + 4B]
@ Patches/../C_code.c:3050:         if (gST[i].ms != priority_A)
	ldr	r6, [sp, #4]	@ priority_A, %sfp
	cmp	r3, r6	@ MEM[(short unsigned int *)_78 + 4B], priority_A
	bne	.L677		@,
@ Patches/../C_code.c:3054:         if (gST[i].me != priority_B)
	ldrh	r3, [r2, #6]	@ MEM[(short unsigned int *)_78 + 6B], MEM[(short unsigned int *)_78 + 6B]
@ Patches/../C_code.c:3054:         if (gST[i].me != priority_B)
	cmp	r3, r8	@ MEM[(short unsigned int *)_78 + 6B], priority_B
	bne	.L677		@,
@ Patches/../C_code.c:3058:         List[0]++;
	adds	r0, r0, #1	@ tmp223,
	lsls	r3, r0, #16	@ tmp224, tmp223,
	lsrs	r3, r3, #16	@ _29, tmp224,
	strh	r3, [r4]	@ _29, *List_49(D)
@ Patches/../C_code.c:3059:         List[List[0]] = i;
	lsls	r3, r3, #1	@ tmp226, _29,
	strh	r1, [r3, r4]	@ i, *_32
.L677:
@ Patches/../C_code.c:3028:     for (i = 0; i < startingPoint; ++i)
	adds	r1, r1, #1	@ i,
@ Patches/../C_code.c:3028:     for (i = 0; i < startingPoint; ++i)
	adds	r2, r2, #8	@ ivtmp.1379,
	cmp	r5, r1	@ startingPoint, i
	ble	.L673		@,
.L670:
@ Patches/../C_code.c:3030:         if (List[0] >= MaxNumberOfSongs)
	ldrh	r0, [r4]	@ _19, *List_49(D)
@ Patches/../C_code.c:3030:         if (List[0] >= MaxNumberOfSongs)
	cmp	r0, ip	@ _19, tmp203
	bcc	.L686		@,
.L673:
@ Patches/../C_code.c:3062: }
	movs	r0, r4	@, List
	add	sp, sp, #12	@,,
	@ sp needed	@
	pop	{r4, r5, r6, r7}
	mov	fp, r7
	mov	r10, r6
	mov	r9, r5
	mov	r8, r4
	pop	{r4, r5, r6, r7}
	pop	{r1}
	bx	r1
.L688:
	.align	2
.L687:
	.word	memset
	.word	getSongTable
	.word	BGMExceptions
	.word	-139972136
	.word	-136471472
	.size	BuildTracklist, .-BuildTracklist
	.align	1
	.p2align 2,,3
	.global	RandomizeBattleMusic
	.syntax unified
	.code	16
	.thumb_func
	.type	RandomizeBattleMusic, %function
RandomizeBattleMusic:
	@ Function supports interworking.
	@ args = 0, pretend = 0, frame = 0
	@ frame_needed = 1, uses_anonymous_args = 0
	push	{r4, r5, r7, lr}	@
@ Patches/../C_code.c:2873:     if (NeverRandomizeBGM)
	ldr	r3, .L691	@ tmp126,
@ Patches/../C_code.c:2873:     if (NeverRandomizeBGM)
	ldr	r3, [r3]	@ NeverRandomizeBGM, NeverRandomizeBGM
@ Patches/../C_code.c:3109: {
	add	r7, sp, #0	@,,
@ Patches/../C_code.c:2873:     if (NeverRandomizeBGM)
	cmp	r3, #0	@ NeverRandomizeBGM,
	bne	.L690		@,
@ Patches/../C_code.c:2877:     if (!RandBitflags->randMusic)
	ldr	r3, .L691+4	@ tmp129,
	ldr	r3, [r3]	@ RandBitflags, RandBitflags
@ Patches/../C_code.c:2877:     if (!RandBitflags->randMusic)
	ldrb	r3, [r3, #1]	@ *RandBitflags.96_22, *RandBitflags.96_22
	cmp	r3, #63	@ *RandBitflags.96_22,
	bls	.L690		@,
@ Patches/../C_code.c:3114:     u16 List[MaxNumberOfSongs + 1];
	ldr	r3, .L691+8	@ tmp149,
@ Patches/../C_code.c:3115:     BuildTracklist(List, NextRN_N(600), 0);
	movs	r0, #150	@,
@ Patches/../C_code.c:3114:     u16 List[MaxNumberOfSongs + 1];
	mov	ip, r3	@ tmp149, tmp149
@ Patches/../C_code.c:3115:     BuildTracklist(List, NextRN_N(600), 0);
	ldr	r5, .L691+12	@ tmp138,
@ Patches/../C_code.c:3114:     u16 List[MaxNumberOfSongs + 1];
	add	sp, sp, ip	@, tmp149
@ Patches/../C_code.c:3115:     BuildTracklist(List, NextRN_N(600), 0);
	lsls	r0, r0, #2	@,,
	bl	.L25		@
@ Patches/../C_code.c:3114:     u16 List[MaxNumberOfSongs + 1];
	mov	r4, sp	@ tmp136,
@ Patches/../C_code.c:3115:     BuildTracklist(List, NextRN_N(600), 0);
	movs	r1, r0	@ _1, tmp145
@ Patches/../C_code.c:3115:     BuildTracklist(List, NextRN_N(600), 0);
	movs	r2, #0	@,
	movs	r0, r4	@, tmp136
	bl	BuildTracklist		@
@ Patches/../C_code.c:3116:     return List[NextRN_N(List[0]) + 1];
	ldrh	r0, [r4]	@ (*List.119_14), (*List.119_14)
	bl	.L25		@
@ Patches/../C_code.c:3116:     return List[NextRN_N(List[0]) + 1];
	adds	r0, r0, #1	@ tmp141,
	lsls	r0, r0, #1	@ tmp142, tmp141,
	ldrh	r0, [r0, r4]	@ id, (*List.119_14)
.L690:
@ Patches/../C_code.c:3131: };
	mov	sp, r7	@,
	@ sp needed	@
	pop	{r4, r5, r7}
	pop	{r1}
	bx	r1
.L692:
	.align	2
.L691:
	.word	NeverRandomizeBGM
	.word	RandBitflags
	.word	-1008
	.word	NextRN_N
	.size	RandomizeBattleMusic, .-RandomizeBattleMusic
	.align	1
	.p2align 2,,3
	.global	UnitHasDroppableItem
	.syntax unified
	.code	16
	.thumb_func
	.type	UnitHasDroppableItem, %function
UnitHasDroppableItem:
	@ Function supports interworking.
	@ args = 0, pretend = 0, frame = 0
	@ frame_needed = 0, uses_anonymous_args = 0
	@ link register save eliminated.
@ Patches/../C_code.c:3193:     if (UNIT_FACTION(unit) != FACTION_RED)
	movs	r1, #11	@ tmp121,
	movs	r2, #192	@ tmp122,
	ldrsb	r1, [r0, r1]	@ tmp121,
@ Patches/../C_code.c:3192: {
	movs	r3, r0	@ unit, tmp127
@ Patches/../C_code.c:3193:     if (UNIT_FACTION(unit) != FACTION_RED)
	ands	r2, r1	@ tmp123, tmp121
@ Patches/../C_code.c:3195:         return false;
	movs	r0, #0	@ <retval>,
@ Patches/../C_code.c:3193:     if (UNIT_FACTION(unit) != FACTION_RED)
	cmp	r2, #128	@ tmp123,
	bne	.L693		@,
@ Patches/../C_code.c:3197:     return (unit->state & US_DROP_ITEM);
	ldr	r0, [r3, #12]	@ unit_7(D)->state, unit_7(D)->state
	movs	r3, #128	@ tmp125,
	lsls	r3, r3, #5	@ tmp125, tmp125,
	ands	r0, r3	@ <retval>, tmp125
.L693:
@ Patches/../C_code.c:3198: }
	@ sp needed	@
	bx	lr
	.size	UnitHasDroppableItem, .-UnitHasDroppableItem
	.align	1
	.p2align 2,,3
	.global	UnitHasStealableItem
	.syntax unified
	.code	16
	.thumb_func
	.type	UnitHasStealableItem, %function
UnitHasStealableItem:
	@ Function supports interworking.
	@ args = 0, pretend = 0, frame = 0
	@ frame_needed = 0, uses_anonymous_args = 0
@ Patches/../C_code.c:3206:     if (UNIT_FACTION(unit) != FACTION_RED)
	movs	r2, #11	@ tmp129,
@ Patches/../C_code.c:3205: {
	push	{r3, r4, r5, r6, r7, lr}	@
@ Patches/../C_code.c:3206:     if (UNIT_FACTION(unit) != FACTION_RED)
	movs	r3, #192	@ tmp130,
	ldrsb	r2, [r0, r2]	@ tmp129,
	ands	r3, r2	@ tmp131, tmp129
@ Patches/../C_code.c:3206:     if (UNIT_FACTION(unit) != FACTION_RED)
	cmp	r3, #128	@ tmp131,
	bne	.L697		@,
	movs	r4, r0	@ ivtmp.1406, unit
	adds	r0, r0, #40	@ unit,
	movs	r5, r0	@ _28, unit
@ Patches/../C_code.c:3201:     return (GetItemData(item & 0xFF)->weaponType == 9);
	movs	r6, #255	@ tmp137,
	ldr	r7, .L702	@ tmp143,
	adds	r4, r4, #30	@ ivtmp.1406,
.L699:
	ldrh	r0, [r4]	@ MEM[(short unsigned int *)_26], MEM[(short unsigned int *)_26]
	ands	r0, r6	@ tmp138, tmp137
	bl	.L68		@
@ Patches/../C_code.c:3213:         if (IsItemStealableSimple(unit->items[i]))
	ldrb	r3, [r0, #7]	@ tmp141,
	cmp	r3, #9	@ tmp141,
	beq	.L700		@,
@ Patches/../C_code.c:3210:     for (int i = 0; i < 5; ++i)
	adds	r4, r4, #2	@ ivtmp.1406,
	cmp	r4, r5	@ ivtmp.1406, _28
	bne	.L699		@,
.L697:
@ Patches/../C_code.c:3208:         return false;
	movs	r0, #0	@ <retval>,
.L696:
@ Patches/../C_code.c:3225: }
	@ sp needed	@
	pop	{r3, r4, r5, r6, r7}
	pop	{r1}
	bx	r1
.L700:
@ Patches/../C_code.c:3215:             return true;
	movs	r0, #1	@ <retval>,
	b	.L696		@
.L703:
	.align	2
.L702:
	.word	GetItemData
	.size	UnitHasStealableItem, .-UnitHasStealableItem
	.align	1
	.p2align 2,,3
	.global	MaybeDisplayStealOrDropIcon
	.syntax unified
	.code	16
	.thumb_func
	.type	MaybeDisplayStealOrDropIcon, %function
MaybeDisplayStealOrDropIcon:
	@ Function supports interworking.
	@ args = 0, pretend = 0, frame = 0
	@ frame_needed = 0, uses_anonymous_args = 0
	push	{r3, r4, r5, r6, r7, lr}	@
	mov	lr, r9	@,
	mov	r7, r8	@,
@ Patches/../C_code.c:3228:     if ((GetGameClock() & 0x1F) >= 20)
	ldr	r3, .L718	@ tmp161,
@ Patches/../C_code.c:3227: {
	push	{r7, lr}	@
@ Patches/../C_code.c:3227: {
	movs	r4, r0	@ unit, tmp221
@ Patches/../C_code.c:3228:     if ((GetGameClock() & 0x1F) >= 20)
	bl	.L24		@
@ Patches/../C_code.c:3228:     if ((GetGameClock() & 0x1F) >= 20)
	movs	r3, #31	@ tmp162,
	ands	r3, r0	@ tmp163, tmp222
@ Patches/../C_code.c:3232:     if (!UNIT_IS_VALID(unit))
	cmp	r3, #19	@ tmp163,
	bhi	.L715		@,
	cmp	r4, #0	@ unit,
	beq	.L715		@,
@ Patches/../C_code.c:3232:     if (!UNIT_IS_VALID(unit))
	ldr	r3, [r4]	@ unit_30(D)->pCharacterData, unit_30(D)->pCharacterData
	cmp	r3, #0	@ unit_30(D)->pCharacterData,
	beq	.L715		@,
@ Patches/../C_code.c:3237:     int x = unit->xPos;
	movs	r5, #16	@ x,
@ Patches/../C_code.c:3239:     x = x * 16 - gCameraX;
	ldr	r3, .L718+4	@ tmp177,
@ Patches/../C_code.c:3237:     int x = unit->xPos;
	ldrsb	r5, [r4, r5]	@ x,* x
@ Patches/../C_code.c:3239:     x = x * 16 - gCameraX;
	ldrh	r3, [r3]	@ gCameraX, gCameraX
@ Patches/../C_code.c:3239:     x = x * 16 - gCameraX;
	lsls	r5, r5, #4	@ _6, x,
@ Patches/../C_code.c:3239:     x = x * 16 - gCameraX;
	subs	r5, r5, r3	@ x, _6, gCameraX
@ Patches/../C_code.c:3241:     if (x < -16 || x > 240)
	movs	r2, r5	@ tmp179, x
@ Patches/../C_code.c:3241:     if (x < -16 || x > 240)
	movs	r3, #128	@ tmp180,
@ Patches/../C_code.c:3241:     if (x < -16 || x > 240)
	adds	r2, r2, #16	@ tmp179,
@ Patches/../C_code.c:3241:     if (x < -16 || x > 240)
	lsls	r3, r3, #1	@ tmp180, tmp180,
	cmp	r2, r3	@ tmp179, tmp180
	bhi	.L715		@,
@ Patches/../C_code.c:3238:     int y = unit->yPos;
	movs	r6, #17	@ y,
@ Patches/../C_code.c:3240:     y = y * 16 - gCameraY;
	ldr	r3, .L718+8	@ tmp182,
@ Patches/../C_code.c:3238:     int y = unit->yPos;
	ldrsb	r6, [r4, r6]	@ y,* y
@ Patches/../C_code.c:3240:     y = y * 16 - gCameraY;
	ldrh	r3, [r3]	@ gCameraY, gCameraY
@ Patches/../C_code.c:3240:     y = y * 16 - gCameraY;
	lsls	r6, r6, #4	@ _9, y,
@ Patches/../C_code.c:3240:     y = y * 16 - gCameraY;
	subs	r6, r6, r3	@ y, _9, gCameraY
@ Patches/../C_code.c:3246:     if (y < -16 || y > 160)
	movs	r3, r6	@ tmp184, y
	adds	r3, r3, #16	@ tmp184,
@ Patches/../C_code.c:3246:     if (y < -16 || y > 160)
	cmp	r3, #176	@ tmp184,
	bhi	.L715		@,
@ Patches/../C_code.c:3193:     if (UNIT_FACTION(unit) != FACTION_RED)
	movs	r2, #11	@ tmp185,
	movs	r3, #192	@ tmp186,
	ldrsb	r2, [r4, r2]	@ tmp185,
	ands	r3, r2	@ tmp187, tmp185
@ Patches/../C_code.c:3193:     if (UNIT_FACTION(unit) != FACTION_RED)
	cmp	r3, #128	@ tmp187,
	bne	.L707		@,
@ Patches/../C_code.c:3250:     if (UnitHasDroppableItem(unit))
	ldr	r3, [r4, #12]	@ unit_30(D)->state, unit_30(D)->state
	lsls	r3, r3, #19	@ tmp225, unit_30(D)->state,
	bmi	.L717		@,
	movs	r3, #40	@ _107,
	mov	r9, r3	@ _107, _107
	ldr	r3, .L718+12	@ tmp220,
	movs	r7, r4	@ ivtmp.1418, unit
	add	r9, r9, r4	@ _107, unit
	mov	r8, r3	@ tmp220, tmp220
@ Patches/../C_code.c:3201:     return (GetItemData(item & 0xFF)->weaponType == 9);
	movs	r4, #255	@ tmp201,
	adds	r7, r7, #30	@ ivtmp.1418,
.L710:
	ldrh	r0, [r7]	@ MEM[(short unsigned int *)_109], MEM[(short unsigned int *)_109]
	ands	r0, r4	@ tmp206, tmp201
	bl	.L67		@
@ Patches/../C_code.c:3213:         if (IsItemStealableSimple(unit->items[i]))
	ldrb	r3, [r0, #7]	@ tmp209,
	cmp	r3, #9	@ tmp209,
	beq	.L709		@,
@ Patches/../C_code.c:3210:     for (int i = 0; i < 5; ++i)
	adds	r7, r7, #2	@ ivtmp.1418,
	cmp	r9, r7	@ _107, ivtmp.1418
	bne	.L710		@,
.L707:
@ Patches/../C_code.c:3266:     return true;
	movs	r0, #1	@ <retval>,
	b	.L704		@
.L715:
@ Patches/../C_code.c:3230:         return false;
	movs	r0, #0	@ <retval>,
.L704:
@ Patches/../C_code.c:3267: }
	@ sp needed	@
	pop	{r6, r7}
	mov	r9, r7
	mov	r8, r6
	pop	{r3, r4, r5, r6, r7}
	pop	{r1}
	bx	r1
.L709:
@ Patches/../C_code.c:3257:         CallARM_PushToSecondaryOAM(OAM1_X(0x200 + x + 1), OAM0_Y(0x100 + y + 7), gObject_8x8, 0x865);
	movs	r1, r4	@ tmp201, tmp201
@ Patches/../C_code.c:3257:         CallARM_PushToSecondaryOAM(OAM1_X(0x200 + x + 1), OAM0_Y(0x100 + y + 7), gObject_8x8, 0x865);
	ldr	r3, .L718+16	@ tmp237,
@ Patches/../C_code.c:3257:         CallARM_PushToSecondaryOAM(OAM1_X(0x200 + x + 1), OAM0_Y(0x100 + y + 7), gObject_8x8, 0x865);
	adds	r6, r6, #8	@ tmp213,
@ Patches/../C_code.c:3257:         CallARM_PushToSecondaryOAM(OAM1_X(0x200 + x + 1), OAM0_Y(0x100 + y + 7), gObject_8x8, 0x865);
	adds	r0, r5, r3	@ tmp216, x, tmp237
@ Patches/../C_code.c:3257:         CallARM_PushToSecondaryOAM(OAM1_X(0x200 + x + 1), OAM0_Y(0x100 + y + 7), gObject_8x8, 0x865);
	adds	r6, r6, #255	@ tmp213,
@ Patches/../C_code.c:3257:         CallARM_PushToSecondaryOAM(OAM1_X(0x200 + x + 1), OAM0_Y(0x100 + y + 7), gObject_8x8, 0x865);
	lsls	r0, r0, #23	@ tmp218, tmp216,
	lsrs	r0, r0, #23	@ tmp217, tmp218,
	ldr	r2, .L718+20	@ tmp212,
	ldr	r3, .L718+24	@,
	ldr	r4, .L718+28	@ tmp219,
	ands	r1, r6	@ tmp201, tmp213
	bl	.L66		@
@ Patches/../C_code.c:3266:     return true;
	movs	r0, #1	@ <retval>,
	b	.L704		@
.L717:
@ Patches/../C_code.c:3252:         CallARM_PushToSecondaryOAM(
	movs	r1, #255	@ tmp194,
@ Patches/../C_code.c:3253:             OAM1_X(0x200 + x + 1), OAM0_Y(0x100 + y + 7), gObject_8x8, 0x869); // 0x869 priority 2 tile 0x69
	ldr	r3, .L718+16	@ tmp231,
@ Patches/../C_code.c:3253:             OAM1_X(0x200 + x + 1), OAM0_Y(0x100 + y + 7), gObject_8x8, 0x869); // 0x869 priority 2 tile 0x69
	adds	r6, r6, #8	@ tmp193,
@ Patches/../C_code.c:3253:             OAM1_X(0x200 + x + 1), OAM0_Y(0x100 + y + 7), gObject_8x8, 0x869); // 0x869 priority 2 tile 0x69
	adds	r0, r5, r3	@ tmp196, x, tmp231
@ Patches/../C_code.c:3253:             OAM1_X(0x200 + x + 1), OAM0_Y(0x100 + y + 7), gObject_8x8, 0x869); // 0x869 priority 2 tile 0x69
	adds	r6, r6, #255	@ tmp193,
@ Patches/../C_code.c:3252:         CallARM_PushToSecondaryOAM(
	lsls	r0, r0, #23	@ tmp198, tmp196,
	lsrs	r0, r0, #23	@ tmp197, tmp198,
	ldr	r2, .L718+20	@ tmp192,
	ldr	r3, .L718+32	@,
	ldr	r4, .L718+28	@ tmp199,
	ands	r1, r6	@ tmp195, tmp193
	bl	.L66		@
@ Patches/../C_code.c:3266:     return true;
	movs	r0, #1	@ <retval>,
	b	.L704		@
.L719:
	.align	2
.L718:
	.word	GetGameClock
	.word	gCameraX
	.word	gCameraY
	.word	GetItemData
	.word	513
	.word	gObject_8x8
	.word	2149
	.word	CallARM_PushToSecondaryOAM
	.word	2153
	.size	MaybeDisplayStealOrDropIcon, .-MaybeDisplayStealOrDropIcon
	.align	1
	.p2align 2,,3
	.global	GetAdjustedPortraitId
	.syntax unified
	.code	16
	.thumb_func
	.type	GetAdjustedPortraitId, %function
GetAdjustedPortraitId:
	@ Function supports interworking.
	@ args = 0, pretend = 0, frame = 0
	@ frame_needed = 0, uses_anonymous_args = 0
	push	{r4, lr}	@
@ Patches/../C_code.c:3348: {
	movs	r4, r0	@ unit, tmp130
@ Patches/../C_code.c:3349:     int portraitID = GetUnitPortraitId(unit);
	ldr	r3, .L724	@ tmp124,
	bl	.L24		@
@ Patches/../C_code.c:3350:     if (!unit->pCharacterData->portraitId)
	ldr	r3, [r4]	@ _1, unit_10(D)->pCharacterData
@ Patches/../C_code.c:3350:     if (!unit->pCharacterData->portraitId)
	ldrh	r2, [r3, #6]	@ tmp125,
	cmp	r2, #0	@ tmp125,
	bne	.L721		@,
@ Patches/../C_code.c:3352:         portraitID += unit->index;
	movs	r2, #11	@ tmp126,
	ldrsb	r2, [r4, r2]	@ tmp126,
@ Patches/../C_code.c:3352:         portraitID += unit->index;
	adds	r2, r2, r0	@ portraitID, tmp126, <retval>
@ Patches/../C_code.c:3354:         portraitID &= 0xFF;
	movs	r0, #255	@ tmp128,
@ Patches/../C_code.c:3353:         portraitID += unit->pCharacterData->number;
	ldrb	r3, [r3, #4]	@ tmp127,
@ Patches/../C_code.c:3353:         portraitID += unit->pCharacterData->number;
	adds	r3, r3, r2	@ portraitID, tmp127, portraitID
@ Patches/../C_code.c:3354:         portraitID &= 0xFF;
	ands	r0, r3	@ <retval>, portraitID
.L721:
@ Patches/../C_code.c:3356:     if (!portraitID)
	cmp	r0, #0	@ <retval>,
	bne	.L720		@,
@ Patches/../C_code.c:3358:         portraitID = 1;
	adds	r0, r0, #1	@ <retval>,
.L720:
@ Patches/../C_code.c:3361: }
	@ sp needed	@
	pop	{r4}
	pop	{r1}
	bx	r1
.L725:
	.align	2
.L724:
	.word	GetUnitPortraitId
	.size	GetAdjustedPortraitId, .-GetAdjustedPortraitId
	.align	1
	.p2align 2,,3
	.global	ShouldRandomizeColours
	.syntax unified
	.code	16
	.thumb_func
	.type	ShouldRandomizeColours, %function
ShouldRandomizeColours:
	@ Function supports interworking.
	@ args = 0, pretend = 0, frame = 0
	@ frame_needed = 0, uses_anonymous_args = 0
	@ link register save eliminated.
@ Patches/../C_code.c:3367:     if (NeverRandomizeColours)
	ldr	r3, .L729	@ tmp120,
@ Patches/../C_code.c:3367:     if (NeverRandomizeColours)
	ldr	r3, [r3]	@ NeverRandomizeColours, NeverRandomizeColours
	cmp	r3, #0	@ NeverRandomizeColours,
	bne	.L728		@,
@ Patches/../C_code.c:3371:     if (RandBitflags->colours)
	movs	r0, #7	@ tmp129,
@ Patches/../C_code.c:3371:     if (RandBitflags->colours)
	ldr	r3, .L729+4	@ tmp123,
	ldr	r3, [r3]	@ RandBitflags, RandBitflags
	ldrb	r3, [r3, #2]	@ *RandBitflags.127_5, *RandBitflags.127_5
@ Patches/../C_code.c:3371:     if (RandBitflags->colours)
	ands	r0, r3	@ tmp131, *RandBitflags.127_5
	subs	r3, r0, #1	@ tmp134, tmp131
	sbcs	r0, r0, r3	@ <retval>, tmp131, tmp134
.L726:
@ Patches/../C_code.c:3376: }
	@ sp needed	@
	bx	lr
.L728:
@ Patches/../C_code.c:3369:         return false;
	movs	r0, #0	@ <retval>,
	b	.L726		@
.L730:
	.align	2
.L729:
	.word	NeverRandomizeColours
	.word	RandBitflags
	.size	ShouldRandomizeColours, .-ShouldRandomizeColours
	.align	1
	.p2align 2,,3
	.global	AnyFadeExists
	.syntax unified
	.code	16
	.thumb_func
	.type	AnyFadeExists, %function
AnyFadeExists:
	@ Function supports interworking.
	@ args = 0, pretend = 0, frame = 0
	@ frame_needed = 0, uses_anonymous_args = 0
	push	{r4, lr}	@
@ Patches/../C_code.c:3485:     if (FadeExists())
	ldr	r3, .L735	@ tmp121,
	bl	.L24		@
@ Patches/../C_code.c:3485:     if (FadeExists())
	cmp	r0, #0	@ tmp136,
	beq	.L732		@,
.L734:
@ Patches/../C_code.c:3486:         return true;
	movs	r0, #1	@ <retval>,
.L731:
@ Patches/../C_code.c:3497: }
	@ sp needed	@
	pop	{r4}
	pop	{r1}
	bx	r1
.L732:
@ Patches/../C_code.c:3487:     if (Proc_Find(ProcScr_FadeCore))
	ldr	r0, .L735+4	@ tmp124,
	ldr	r4, .L735+8	@ tmp125,
	bl	.L66		@
@ Patches/../C_code.c:3487:     if (Proc_Find(ProcScr_FadeCore))
	cmp	r0, #0	@ tmp137,
	bne	.L734		@,
@ Patches/../C_code.c:3489:     if (Proc_Find(ProcScr_PalFade))
	ldr	r0, .L735+12	@ tmp126,
	bl	.L66		@
@ Patches/../C_code.c:3489:     if (Proc_Find(ProcScr_PalFade))
	cmp	r0, #0	@ tmp138,
	bne	.L734		@,
@ Patches/../C_code.c:3491:     if (Proc_Find(ProcScr_BmFadeIN))
	ldr	r0, .L735+16	@ tmp128,
	bl	.L66		@
@ Patches/../C_code.c:3491:     if (Proc_Find(ProcScr_BmFadeIN))
	cmp	r0, #0	@ tmp139,
	bne	.L734		@,
@ Patches/../C_code.c:3493:     if (Proc_Find(ProcScr_BmFadeOUT))
	ldr	r0, .L735+20	@ tmp130,
	bl	.L66		@
@ Patches/../C_code.c:3493:     if (Proc_Find(ProcScr_BmFadeOUT))
	subs	r3, r0, #1	@ tmp134, tmp140
	sbcs	r0, r0, r3	@ <retval>, tmp140, tmp134
	b	.L731		@
.L736:
	.align	2
.L735:
	.word	FadeExists
	.word	ProcScr_FadeCore
	.word	Proc_Find
	.word	ProcScr_PalFade
	.word	ProcScr_BmFadeIN
	.word	ProcScr_BmFadeOUT
	.size	AnyFadeExists, .-AnyFadeExists
	.align	1
	.p2align 2,,3
	.global	ShouldRandomizeGrowth
	.syntax unified
	.code	16
	.thumb_func
	.type	ShouldRandomizeGrowth, %function
ShouldRandomizeGrowth:
	@ Function supports interworking.
	@ args = 0, pretend = 0, frame = 0
	@ frame_needed = 0, uses_anonymous_args = 0
	@ link register save eliminated.
@ Patches/../C_code.c:3780:     if ((!RandBitflags->growth) && (!RandBitflags->grow50))
	ldr	r3, .L740	@ tmp125,
	ldr	r3, [r3]	@ RandBitflags, RandBitflags
	ldr	r2, [r3]	@ *RandBitflags.146_1, *RandBitflags.146_1
	ldr	r3, .L740+4	@ tmp128,
@ Patches/../C_code.c:3780:     if ((!RandBitflags->growth) && (!RandBitflags->grow50))
	tst	r2, r3	@ *RandBitflags.146_1, tmp128
	beq	.L739		@,
@ Patches/../C_code.c:3784:     return !CharExceptions[unit->pCharacterData->number].NeverChangeFrom;
	ldr	r2, [r0]	@ MEM[(const struct CharacterData * *)unit_6(D)], MEM[(const struct CharacterData * *)unit_6(D)]
	ldrb	r2, [r2, #4]	@ tmp131,
@ Patches/../C_code.c:3784:     return !CharExceptions[unit->pCharacterData->number].NeverChangeFrom;
	ldr	r3, .L740+8	@ tmp129,
	lsls	r2, r2, #1	@ tmp132, tmp131,
@ Patches/../C_code.c:3784:     return !CharExceptions[unit->pCharacterData->number].NeverChangeFrom;
	ldrb	r0, [r2, r3]	@ tmp134, CharExceptions
	rsbs	r3, r0, #0	@ tmp136, tmp134
	adcs	r0, r0, r3	@ <retval>, tmp134, tmp136
.L737:
@ Patches/../C_code.c:3785: }
	@ sp needed	@
	bx	lr
.L739:
@ Patches/../C_code.c:3782:         return false;
	movs	r0, #0	@ <retval>,
	b	.L737		@
.L741:
	.align	2
.L740:
	.word	RandBitflags
	.word	268435468
	.word	CharExceptions
	.size	ShouldRandomizeGrowth, .-ShouldRandomizeGrowth
	.align	1
	.p2align 2,,3
	.global	ShouldRandomizeStatCaps
	.syntax unified
	.code	16
	.thumb_func
	.type	ShouldRandomizeStatCaps, %function
ShouldRandomizeStatCaps:
	@ Function supports interworking.
	@ args = 0, pretend = 0, frame = 0
	@ frame_needed = 0, uses_anonymous_args = 0
	@ link register save eliminated.
@ Patches/../C_code.c:3788:     if (!RandBitflags->caps)
	ldr	r3, .L745	@ tmp125,
	ldr	r3, [r3]	@ RandBitflags, RandBitflags
	ldrh	r2, [r3]	@ *RandBitflags.147_1, *RandBitflags.147_1
	movs	r3, #224	@ tmp129,
	lsls	r3, r3, #1	@ tmp129, tmp129,
@ Patches/../C_code.c:3788:     if (!RandBitflags->caps)
	tst	r2, r3	@ *RandBitflags.147_1, tmp129
	beq	.L744		@,
@ Patches/../C_code.c:3784:     return !CharExceptions[unit->pCharacterData->number].NeverChangeFrom;
	ldr	r2, [r0]	@ MEM[(const struct CharacterData * *)unit_6(D)], MEM[(const struct CharacterData * *)unit_6(D)]
	ldrb	r2, [r2, #4]	@ tmp135,
@ Patches/../C_code.c:3784:     return !CharExceptions[unit->pCharacterData->number].NeverChangeFrom;
	ldr	r3, .L745+4	@ tmp133,
	lsls	r2, r2, #1	@ tmp136, tmp135,
@ Patches/../C_code.c:3784:     return !CharExceptions[unit->pCharacterData->number].NeverChangeFrom;
	ldrb	r0, [r2, r3]	@ tmp138, CharExceptions
	rsbs	r3, r0, #0	@ tmp140, tmp138
	adcs	r0, r0, r3	@ <retval>, tmp138, tmp140
.L742:
@ Patches/../C_code.c:3793: }
	@ sp needed	@
	bx	lr
.L744:
@ Patches/../C_code.c:3790:         return false;
	movs	r0, #0	@ <retval>,
	b	.L742		@
.L746:
	.align	2
.L745:
	.word	RandBitflags
	.word	CharExceptions
	.size	ShouldRandomizeStatCaps, .-ShouldRandomizeStatCaps
	.align	1
	.p2align 2,,3
	.global	ShouldRandomizeClass
	.syntax unified
	.code	16
	.thumb_func
	.type	ShouldRandomizeClass, %function
ShouldRandomizeClass:
	@ Function supports interworking.
	@ args = 0, pretend = 0, frame = 0
	@ frame_needed = 0, uses_anonymous_args = 0
	@ link register save eliminated.
@ Patches/../C_code.c:3797:     int config = RandBitflags->class;
	ldr	r3, .L758	@ tmp131,
	ldr	r3, [r3]	@ RandBitflags, RandBitflags
	ldrb	r3, [r3, #1]	@ *RandBitflags.148_1, *RandBitflags.148_1
	lsls	r3, r3, #29	@ tmp136, *RandBitflags.148_1,
@ Patches/../C_code.c:3796: {
	movs	r2, r0	@ unit, tmp155
@ Patches/../C_code.c:3797:     int config = RandBitflags->class;
	lsrs	r0, r3, #30	@ <retval>, tmp136,
@ Patches/../C_code.c:3798:     if (!config)
	beq	.L747		@,
@ Patches/../C_code.c:3802:     if ((config == 3) && (UNIT_FACTION(unit) != FACTION_RED))
	cmp	r0, #3	@ <retval>,
	beq	.L756		@,
@ Patches/../C_code.c:3812:             if (unit->pCharacterData->number > 0x3a) // recruitable BWL units as players
	ldr	r3, [r2]	@ unit_14(D)->pCharacterData, unit_14(D)->pCharacterData
	ldrb	r3, [r3, #4]	@ prephitmp_28,
@ Patches/../C_code.c:3806:     if ((config == 2) && (UNIT_FACTION(unit) == FACTION_RED))
	cmp	r0, #2	@ <retval>,
	beq	.L757		@,
.L750:
@ Patches/../C_code.c:3784:     return !CharExceptions[unit->pCharacterData->number].NeverChangeFrom;
	ldr	r2, .L758+4	@ tmp148,
	lsls	r3, r3, #1	@ tmp149, prephitmp_28,
@ Patches/../C_code.c:3784:     return !CharExceptions[unit->pCharacterData->number].NeverChangeFrom;
	ldrb	r0, [r3, r2]	@ tmp151, CharExceptions
	rsbs	r3, r0, #0	@ tmp153, tmp151
	adcs	r0, r0, r3	@ <retval>, tmp151, tmp153
.L747:
@ Patches/../C_code.c:3820: }
	@ sp needed	@
	bx	lr
.L756:
@ Patches/../C_code.c:3802:     if ((config == 3) && (UNIT_FACTION(unit) != FACTION_RED))
	movs	r1, #11	@ tmp138,
	movs	r3, #192	@ tmp139,
	ldrsb	r1, [r2, r1]	@ tmp138,
@ Patches/../C_code.c:3800:         return false;
	movs	r0, #0	@ <retval>,
@ Patches/../C_code.c:3802:     if ((config == 3) && (UNIT_FACTION(unit) != FACTION_RED))
	ands	r3, r1	@ tmp140, tmp138
@ Patches/../C_code.c:3802:     if ((config == 3) && (UNIT_FACTION(unit) != FACTION_RED))
	cmp	r3, #128	@ tmp140,
	bne	.L747		@,
@ Patches/../C_code.c:3812:             if (unit->pCharacterData->number > 0x3a) // recruitable BWL units as players
	ldr	r3, [r2]	@ unit_14(D)->pCharacterData, unit_14(D)->pCharacterData
	ldrb	r3, [r3, #4]	@ prephitmp_28,
	b	.L750		@
.L757:
@ Patches/../C_code.c:3806:     if ((config == 2) && (UNIT_FACTION(unit) == FACTION_RED))
	movs	r1, #11	@ tmp143,
	ldrsb	r1, [r2, r1]	@ tmp143,
	movs	r2, #192	@ tmp144,
	ands	r2, r1	@ tmp145, tmp143
@ Patches/../C_code.c:3806:     if ((config == 2) && (UNIT_FACTION(unit) == FACTION_RED))
	cmp	r2, #128	@ tmp145,
	bne	.L750		@,
@ Patches/../C_code.c:3812:             if (unit->pCharacterData->number > 0x3a) // recruitable BWL units as players
	cmp	r3, #58	@ prephitmp_28,
	bls	.L750		@,
@ Patches/../C_code.c:3800:         return false;
	movs	r0, #0	@ <retval>,
	b	.L747		@
.L759:
	.align	2
.L758:
	.word	RandBitflags
	.word	CharExceptions
	.size	ShouldRandomizeClass, .-ShouldRandomizeClass
	.align	1
	.p2align 2,,3
	.global	IsClassOrRecruitmentRandomized
	.syntax unified
	.code	16
	.thumb_func
	.type	IsClassOrRecruitmentRandomized, %function
IsClassOrRecruitmentRandomized:
	@ Function supports interworking.
	@ args = 0, pretend = 0, frame = 0
	@ frame_needed = 0, uses_anonymous_args = 0
@ Patches/../C_code.c:3797:     int config = RandBitflags->class;
	ldr	r2, .L775	@ tmp135,
@ Patches/../C_code.c:3822: {
	push	{r4, lr}	@
@ Patches/../C_code.c:3797:     int config = RandBitflags->class;
	ldr	r2, [r2]	@ RandBitflags, RandBitflags
	ldrb	r4, [r2, #1]	@ *RandBitflags.148_16, *RandBitflags.148_16
@ Patches/../C_code.c:3812:             if (unit->pCharacterData->number > 0x3a) // recruitable BWL units as players
	ldr	r2, [r0]	@ unit_5(D)->pCharacterData, unit_5(D)->pCharacterData
@ Patches/../C_code.c:3797:     int config = RandBitflags->class;
	lsls	r4, r4, #29	@ tmp140, *RandBitflags.148_16,
@ Patches/../C_code.c:3822: {
	movs	r3, r0	@ unit, tmp169
@ Patches/../C_code.c:3797:     int config = RandBitflags->class;
	lsrs	r4, r4, #30	@ <retval>, tmp140,
@ Patches/../C_code.c:3812:             if (unit->pCharacterData->number > 0x3a) // recruitable BWL units as players
	ldrb	r0, [r2, #4]	@ _67,
@ Patches/../C_code.c:3798:     if (!config)
	cmp	r4, #0	@ <retval>,
	beq	.L761		@,
@ Patches/../C_code.c:3802:     if ((config == 3) && (UNIT_FACTION(unit) != FACTION_RED))
	cmp	r4, #3	@ <retval>,
	beq	.L773		@,
@ Patches/../C_code.c:3806:     if ((config == 2) && (UNIT_FACTION(unit) == FACTION_RED))
	cmp	r4, #2	@ <retval>,
	beq	.L774		@,
.L763:
@ Patches/../C_code.c:3784:     return !CharExceptions[unit->pCharacterData->number].NeverChangeFrom;
	ldr	r3, .L775+4	@ tmp151,
	lsls	r2, r0, #1	@ tmp152, _67,
@ Patches/../C_code.c:3784:     return !CharExceptions[unit->pCharacterData->number].NeverChangeFrom;
	ldrb	r4, [r2, r3]	@ tmp154, CharExceptions
	rsbs	r3, r4, #0	@ tmp156, tmp154
	adcs	r4, r4, r3	@ <retval>, tmp154, tmp156
.L761:
@ Patches/../C_code.c:247:     if (!GetCharacterData(id)->portraitId)
	ldr	r3, .L775+8	@ tmp157,
	bl	.L24		@
@ Patches/../C_code.c:247:     if (!GetCharacterData(id)->portraitId)
	ldrh	r3, [r0, #6]	@ tmp158,
	cmp	r3, #0	@ tmp158,
	beq	.L760		@,
@ Patches/../C_code.c:243:     return RecruitValues->recruitment;
	ldr	r3, .L775+12	@ tmp160,
	ldr	r3, [r3]	@ RecruitValues, RecruitValues
	ldrb	r3, [r3]	@ *RecruitValues.0_12, *RecruitValues.0_12
	lsls	r3, r3, #29	@ tmp165, *RecruitValues.0_12,
	lsrs	r3, r3, #29	@ tmp166, tmp165,
@ Patches/../C_code.c:3824:     result |= ShouldRandomizeRecruitmentForUnitID(unit->pCharacterData->number);
	orrs	r4, r3	@ <retval>, tmp166
.L760:
@ Patches/../C_code.c:3826: }
	movs	r0, r4	@, <retval>
	@ sp needed	@
	pop	{r4}
	pop	{r1}
	bx	r1
.L773:
@ Patches/../C_code.c:3802:     if ((config == 3) && (UNIT_FACTION(unit) != FACTION_RED))
	movs	r2, #11	@ tmp143,
	ldrsb	r2, [r3, r2]	@ tmp143,
	movs	r3, #192	@ tmp144,
@ Patches/../C_code.c:3800:         return false;
	movs	r4, #0	@ <retval>,
@ Patches/../C_code.c:3802:     if ((config == 3) && (UNIT_FACTION(unit) != FACTION_RED))
	ands	r3, r2	@ tmp145, tmp143
@ Patches/../C_code.c:3802:     if ((config == 3) && (UNIT_FACTION(unit) != FACTION_RED))
	cmp	r3, #128	@ tmp145,
	bne	.L761		@,
	b	.L763		@
.L774:
@ Patches/../C_code.c:3806:     if ((config == 2) && (UNIT_FACTION(unit) == FACTION_RED))
	movs	r2, #11	@ tmp146,
	ldrsb	r2, [r3, r2]	@ tmp146,
	movs	r3, #192	@ tmp147,
	ands	r3, r2	@ tmp148, tmp146
@ Patches/../C_code.c:3806:     if ((config == 2) && (UNIT_FACTION(unit) == FACTION_RED))
	cmp	r3, #128	@ tmp148,
	bne	.L763		@,
@ Patches/../C_code.c:3812:             if (unit->pCharacterData->number > 0x3a) // recruitable BWL units as players
	cmp	r0, #58	@ _67,
	bls	.L763		@,
@ Patches/../C_code.c:3800:         return false;
	movs	r4, #0	@ <retval>,
	b	.L761		@
.L776:
	.align	2
.L775:
	.word	RandBitflags
	.word	CharExceptions
	.word	GetCharacterData
	.word	RecruitValues
	.size	IsClassOrRecruitmentRandomized, .-IsClassOrRecruitmentRandomized
	.align	1
	.p2align 2,,3
	.global	IsAnythingRandomized
	.syntax unified
	.code	16
	.thumb_func
	.type	IsAnythingRandomized, %function
IsAnythingRandomized:
	@ Function supports interworking.
	@ args = 0, pretend = 0, frame = 0
	@ frame_needed = 0, uses_anonymous_args = 0
	@ link register save eliminated.
@ Patches/../C_code.c:3830:     return RandBitflags->base | RecruitValues->recruitment | ((RandBitflags->growth != 4) && (RandBitflags->growth)) |
	ldr	r3, .L778	@ tmp141,
@ Patches/../C_code.c:3833: }
	@ sp needed	@
@ Patches/../C_code.c:3830:     return RandBitflags->base | RecruitValues->recruitment | ((RandBitflags->growth != 4) && (RandBitflags->growth)) |
	ldr	r1, [r3]	@ RandBitflags.149_1, RandBitflags
@ Patches/../C_code.c:3830:     return RandBitflags->base | RecruitValues->recruitment | ((RandBitflags->growth != 4) && (RandBitflags->growth)) |
	ldr	r3, .L778+4	@ tmp144,
	ldr	r3, [r3]	@ RecruitValues, RecruitValues
@ Patches/../C_code.c:3830:     return RandBitflags->base | RecruitValues->recruitment | ((RandBitflags->growth != 4) && (RandBitflags->growth)) |
	ldrb	r2, [r1]	@ *RandBitflags.149_1, *RandBitflags.149_1
@ Patches/../C_code.c:3830:     return RandBitflags->base | RecruitValues->recruitment | ((RandBitflags->growth != 4) && (RandBitflags->growth)) |
	ldrb	r0, [r3]	@ *RecruitValues.150_4, *RecruitValues.150_4
@ Patches/../C_code.c:3830:     return RandBitflags->base | RecruitValues->recruitment | ((RandBitflags->growth != 4) && (RandBitflags->growth)) |
	lsls	r3, r2, #30	@ tmp156, *RandBitflags.149_1,
@ Patches/../C_code.c:3830:     return RandBitflags->base | RecruitValues->recruitment | ((RandBitflags->growth != 4) && (RandBitflags->growth)) |
	lsls	r0, r0, #29	@ tmp149, *RecruitValues.150_4,
@ Patches/../C_code.c:3830:     return RandBitflags->base | RecruitValues->recruitment | ((RandBitflags->growth != 4) && (RandBitflags->growth)) |
	lsrs	r3, r3, #30	@ tmp157, tmp156,
@ Patches/../C_code.c:3830:     return RandBitflags->base | RecruitValues->recruitment | ((RandBitflags->growth != 4) && (RandBitflags->growth)) |
	lsrs	r0, r0, #29	@ tmp150, tmp149,
@ Patches/../C_code.c:3831:         RandBitflags->caps | RandBitflags->itemStats | RandBitflags->class | RandBitflags->shopItems |
	orrs	r0, r3	@ tmp159, tmp157
@ Patches/../C_code.c:3831:         RandBitflags->caps | RandBitflags->itemStats | RandBitflags->class | RandBitflags->shopItems |
	ldrh	r3, [r1]	@ *RandBitflags.149_1, *RandBitflags.149_1
	lsls	r3, r3, #23	@ tmp164, *RandBitflags.149_1,
	lsrs	r3, r3, #29	@ tmp165, tmp164,
@ Patches/../C_code.c:3831:         RandBitflags->caps | RandBitflags->itemStats | RandBitflags->class | RandBitflags->shopItems |
	orrs	r0, r3	@ tmp167, tmp165
@ Patches/../C_code.c:3831:         RandBitflags->caps | RandBitflags->itemStats | RandBitflags->class | RandBitflags->shopItems |
	ldrb	r3, [r1, #2]	@ *RandBitflags.149_1, *RandBitflags.149_1
	lsls	r3, r3, #27	@ tmp172, *RandBitflags.149_1,
	lsrs	r3, r3, #30	@ tmp173, tmp172,
@ Patches/../C_code.c:3831:         RandBitflags->caps | RandBitflags->itemStats | RandBitflags->class | RandBitflags->shopItems |
	orrs	r0, r3	@ tmp175, tmp173
@ Patches/../C_code.c:3831:         RandBitflags->caps | RandBitflags->itemStats | RandBitflags->class | RandBitflags->shopItems |
	ldrb	r3, [r1, #1]	@ *RandBitflags.149_1, *RandBitflags.149_1
	lsls	r1, r3, #29	@ tmp180, *RandBitflags.149_1,
	lsrs	r1, r1, #30	@ tmp181, tmp180,
@ Patches/../C_code.c:3831:         RandBitflags->caps | RandBitflags->itemStats | RandBitflags->class | RandBitflags->shopItems |
	orrs	r0, r1	@ tmp183, tmp181
@ Patches/../C_code.c:3831:         RandBitflags->caps | RandBitflags->itemStats | RandBitflags->class | RandBitflags->shopItems |
	lsls	r1, r3, #28	@ tmp188, *RandBitflags.149_1,
	lsrs	r1, r1, #31	@ tmp189, tmp188,
@ Patches/../C_code.c:3832:         RandBitflags->foundItems;
	lsls	r3, r3, #26	@ tmp196, *RandBitflags.149_1,
@ Patches/../C_code.c:3831:         RandBitflags->caps | RandBitflags->itemStats | RandBitflags->class | RandBitflags->shopItems |
	orrs	r0, r1	@ tmp191, tmp189
@ Patches/../C_code.c:3832:         RandBitflags->foundItems;
	lsrs	r3, r3, #30	@ tmp197, tmp196,
@ Patches/../C_code.c:3831:         RandBitflags->caps | RandBitflags->itemStats | RandBitflags->class | RandBitflags->shopItems |
	orrs	r0, r3	@ tmp199, tmp197
@ Patches/../C_code.c:3830:     return RandBitflags->base | RecruitValues->recruitment | ((RandBitflags->growth != 4) && (RandBitflags->growth)) |
	movs	r3, #12	@ tmp205,
	ands	r3, r2	@ tmp207, *RandBitflags.149_1
	subs	r2, r3, #1	@ tmp210, tmp207
	sbcs	r3, r3, r2	@ tmp209, tmp207, tmp210
@ Patches/../C_code.c:3831:         RandBitflags->caps | RandBitflags->itemStats | RandBitflags->class | RandBitflags->shopItems |
	orrs	r0, r3	@ tmp142, tmp209
@ Patches/../C_code.c:3833: }
	bx	lr
.L779:
	.align	2
.L778:
	.word	RandBitflags
	.word	RecruitValues
	.size	IsAnythingRandomized, .-IsAnythingRandomized
	.align	1
	.p2align 2,,3
	.global	GetSeed
	.syntax unified
	.code	16
	.thumb_func
	.type	GetSeed, %function
GetSeed:
	@ Function supports interworking.
	@ args = 0, pretend = 0, frame = 0
	@ frame_needed = 0, uses_anonymous_args = 0
	@ link register save eliminated.
@ Patches/../C_code.c:3837:     return RandValues->seed;
	ldr	r3, .L781	@ tmp119,
@ Patches/../C_code.c:3838: }
	@ sp needed	@
@ Patches/../C_code.c:3837:     return RandValues->seed;
	ldr	r3, [r3]	@ RandValues, RandValues
	ldr	r0, [r3]	@ *RandValues.157_1, *RandValues.157_1
	lsls	r0, r0, #12	@ tmp121, *RandValues.157_1,
	lsrs	r0, r0, #12	@ tmp117, tmp121,
@ Patches/../C_code.c:3838: }
	bx	lr
.L782:
	.align	2
.L781:
	.word	RandValues
	.size	GetSeed, .-GetSeed
	.align	1
	.p2align 2,,3
	.global	ShouldChangeAI
	.syntax unified
	.code	16
	.thumb_func
	.type	ShouldChangeAI, %function
ShouldChangeAI:
	@ Function supports interworking.
	@ args = 0, pretend = 0, frame = 0
	@ frame_needed = 0, uses_anonymous_args = 0
	@ link register save eliminated.
@ Patches/../C_code.c:3842:     return RecruitValues->ai;
	ldr	r3, .L784	@ tmp119,
@ Patches/../C_code.c:3843: }
	@ sp needed	@
@ Patches/../C_code.c:3842:     return RecruitValues->ai;
	ldr	r3, [r3]	@ RecruitValues, RecruitValues
	ldrb	r0, [r3]	@ *RecruitValues.158_1, *RecruitValues.158_1
	lsrs	r0, r0, #6	@ tmp117, *RecruitValues.158_1,
@ Patches/../C_code.c:3843: }
	bx	lr
.L785:
	.align	2
.L784:
	.word	RecruitValues
	.size	ShouldChangeAI, .-ShouldChangeAI
	.align	1
	.p2align 2,,3
	.global	GetMaxItems
	.syntax unified
	.code	16
	.thumb_func
	.type	GetMaxItems, %function
GetMaxItems:
	@ Function supports interworking.
	@ args = 0, pretend = 0, frame = 0
	@ frame_needed = 0, uses_anonymous_args = 0
@ Patches/../C_code.c:3874:     if (MaxItems_Link)
	ldr	r3, .L797	@ tmp124,
	ldr	r0, [r3]	@ <retval>, MaxItems_Link
@ Patches/../C_code.c:3873: {
	push	{r4, lr}	@
@ Patches/../C_code.c:3874:     if (MaxItems_Link)
	cmp	r0, #0	@ <retval>,
	bne	.L786		@,
@ Patches/../C_code.c:3878:     if (*MaxItems > 32)
	ldr	r4, .L797+4	@ tmp136,
	ldr	r3, [r4]	@ MaxItems, MaxItems
	ldrb	r0, [r3]	@ _3, *MaxItems.171_2
@ Patches/../C_code.c:3878:     if (*MaxItems > 32)
	cmp	r0, #32	@ _3,
	bls	.L796		@,
.L786:
@ Patches/../C_code.c:3903: }
	@ sp needed	@
	pop	{r4}
	pop	{r1}
	bx	r1
.L796:
@ Patches/../C_code.c:3882:     const struct ItemData * table = GetItemData(1);
	ldr	r3, .L797+8	@ tmp129,
	movs	r0, #1	@,
	bl	.L24		@
@ Patches/../C_code.c:3885:         if (table->number != i)
	ldrb	r2, [r0, #6]	@ tmp130,
@ Patches/../C_code.c:3883:     for (int i = 1; i <= 256; i++)
	movs	r3, #1	@ i,
@ Patches/../C_code.c:3885:         if (table->number != i)
	cmp	r2, #1	@ tmp130,
	bne	.L791		@,
.L789:
@ Patches/../C_code.c:3890:         table++;
	adds	r0, r0, #36	@ table,
@ Patches/../C_code.c:3885:         if (table->number != i)
	ldrb	r2, [r0, #6]	@ MEM[(unsigned char *)table_16 + 6B], MEM[(unsigned char *)table_16 + 6B]
@ Patches/../C_code.c:3883:     for (int i = 1; i <= 256; i++)
	adds	r3, r3, #1	@ i,
@ Patches/../C_code.c:3885:         if (table->number != i)
	cmp	r3, r2	@ i, MEM[(unsigned char *)table_16 + 6B]
	beq	.L789		@,
.L791:
@ Patches/../C_code.c:3892:     int c = table->number;
	subs	r0, r0, #36	@ tmp131,
	ldrb	r3, [r0, #6]	@ prephitmp_5,
@ Patches/../C_code.c:3892:     int c = table->number;
	subs	r0, r3, #0	@ <retval>, prephitmp_5,
@ Patches/../C_code.c:3897:     if (c < 1)
	bne	.L790		@,
	movs	r3, #1	@ prephitmp_5,
@ Patches/../C_code.c:3899:         c = 1;
	movs	r0, #1	@ <retval>,
.L790:
@ Patches/../C_code.c:3901:     *MaxItems = c;
	ldr	r2, [r4]	@ MaxItems.173_21, MaxItems
@ Patches/../C_code.c:3901:     *MaxItems = c;
	strb	r3, [r2]	@ prephitmp_5, *MaxItems.173_21
	b	.L786		@
.L798:
	.align	2
.L797:
	.word	MaxItems_Link
	.word	MaxItems
	.word	GetItemData
	.size	GetMaxItems, .-GetMaxItems
	.align	1
	.p2align 2,,3
	.global	GetMaxClasses
	.syntax unified
	.code	16
	.thumb_func
	.type	GetMaxClasses, %function
GetMaxClasses:
	@ Function supports interworking.
	@ args = 0, pretend = 0, frame = 0
	@ frame_needed = 0, uses_anonymous_args = 0
@ Patches/../C_code.c:3906:     if (MaxClasses_Link)
	ldr	r3, .L811	@ tmp130,
	ldr	r0, [r3]	@ <retval>, MaxClasses_Link
@ Patches/../C_code.c:3905: {
	push	{r4, lr}	@
@ Patches/../C_code.c:3906:     if (MaxClasses_Link)
	cmp	r0, #0	@ <retval>,
	bne	.L799		@,
@ Patches/../C_code.c:3910:     if (*MaxClasses > 32)
	ldr	r4, .L811+4	@ tmp151,
	ldr	r3, [r4]	@ MaxClasses, MaxClasses
	ldrb	r0, [r3]	@ _3, *MaxClasses.175_2
@ Patches/../C_code.c:3910:     if (*MaxClasses > 32)
	cmp	r0, #32	@ _3,
	bls	.L810		@,
.L799:
@ Patches/../C_code.c:3954: }
	@ sp needed	@
	pop	{r4}
	pop	{r1}
	bx	r1
.L810:
@ Patches/../C_code.c:3914:     const struct ClassData * table = GetClassData(1);
	ldr	r3, .L811+8	@ tmp135,
	movs	r0, #1	@,
	bl	.L24		@
@ Patches/../C_code.c:3929:     if (!RecruitValues->newClasses)
	ldr	r3, .L811+12	@ tmp137,
	ldr	r3, [r3]	@ RecruitValues, RecruitValues
	ldrb	r2, [r3]	@ *RecruitValues.177_11, *RecruitValues.177_11
@ Patches/../C_code.c:3929:     if (!RecruitValues->newClasses)
	movs	r3, #48	@ tmp143,
	ands	r3, r2	@ tmp145, *RecruitValues.177_11
@ Patches/../C_code.c:3931:         c = 126;
	subs	r2, r3, #1	@ tmp153, tmp145
	sbcs	r3, r3, r2	@ tmp152, tmp145, tmp153
	movs	r1, #130	@ tmp155,
	rsbs	r3, r3, #0	@ tmp154, tmp152
	ands	r1, r3	@ c, tmp154
	adds	r1, r1, #127	@ _28,
@ Patches/../C_code.c:3934:     for (int i = 1; i <= c; i++)
	movs	r3, #1	@ i,
	b	.L805		@
.L803:
@ Patches/../C_code.c:3934:     for (int i = 1; i <= c; i++)
	adds	r3, r3, #1	@ i,
@ Patches/../C_code.c:3941:         table++;
	adds	r0, r0, #84	@ table,
@ Patches/../C_code.c:3934:     for (int i = 1; i <= c; i++)
	cmp	r3, r1	@ i, _28
	beq	.L804		@,
.L805:
@ Patches/../C_code.c:3936:         if (table->number != i)
	ldrb	r2, [r0, #4]	@ MEM[(unsigned char *)table_18 + 4B], MEM[(unsigned char *)table_18 + 4B]
@ Patches/../C_code.c:3936:         if (table->number != i)
	cmp	r2, r3	@ MEM[(unsigned char *)table_18 + 4B], i
	beq	.L803		@,
@ Patches/../C_code.c:3938:             table--;
	subs	r0, r0, #84	@ table,
.L804:
@ Patches/../C_code.c:3943:     c = table->number;
	ldrb	r3, [r0, #4]	@ prephitmp_7,
@ Patches/../C_code.c:3943:     c = table->number;
	subs	r0, r3, #0	@ <retval>, prephitmp_7,
@ Patches/../C_code.c:3948:     if (c < 1)
	bne	.L806		@,
@ Patches/../C_code.c:3950:         c = 1;
	movs	r0, #1	@ <retval>,
	adds	r3, r3, #1	@ prephitmp_7,
.L806:
@ Patches/../C_code.c:3952:     *MaxClasses = c;
	ldr	r2, [r4]	@ MaxClasses.178_26, MaxClasses
@ Patches/../C_code.c:3952:     *MaxClasses = c;
	strb	r3, [r2]	@ prephitmp_7, *MaxClasses.178_26
	b	.L799		@
.L812:
	.align	2
.L811:
	.word	MaxClasses_Link
	.word	MaxClasses
	.word	GetClassData
	.word	RecruitValues
	.size	GetMaxClasses, .-GetMaxClasses
	.align	1
	.p2align 2,,3
	.global	NextSeededRN_Simple
	.syntax unified
	.code	16
	.thumb_func
	.type	NextSeededRN_Simple, %function
NextSeededRN_Simple:
	@ Function supports interworking.
	@ args = 0, pretend = 0, frame = 0
	@ frame_needed = 0, uses_anonymous_args = 0
	@ link register save eliminated.
@ Patches/../C_code.c:3959:     u32 rn0 = rn & 0xFFFF;
	lsls	r1, r0, #16	@ tmp125, rn,
@ Patches/../C_code.c:3960:     u32 rn1 = rn >> 16;
	lsrs	r3, r0, #16	@ rn1, rn,
@ Patches/../C_code.c:3961:     rn = (rn1 << 11) + (rn0 >> 5) + (rn0 << 16);
	lsls	r2, r3, #11	@ tmp126, rn1,
@ Patches/../C_code.c:3961:     rn = (rn1 << 11) + (rn0 >> 5) + (rn0 << 16);
	lsrs	r0, r1, #21	@ tmp127, tmp125,
@ Patches/../C_code.c:3961:     rn = (rn1 << 11) + (rn0 >> 5) + (rn0 << 16);
	adds	r2, r2, r0	@ tmp128, tmp126, tmp127
@ Patches/../C_code.c:3968:         rn0++;
	orrs	r3, r1	@ tmp134, tmp125
@ Patches/../C_code.c:3961:     rn = (rn1 << 11) + (rn0 >> 5) + (rn0 << 16);
	adds	r2, r2, r1	@ rn, tmp128, tmp125
@ Patches/../C_code.c:3968:         rn0++;
	lsrs	r0, r3, #15	@ rn0, tmp134,
@ Patches/../C_code.c:3970:     rn ^= rn0;
	eors	r0, r2	@ rn, rn
@ Patches/../C_code.c:3972: }
	@ sp needed	@
	bx	lr
	.size	NextSeededRN_Simple, .-NextSeededRN_Simple
	.align	1
	.p2align 2,,3
	.global	InitSeededRN_Simple
	.syntax unified
	.code	16
	.thumb_func
	.type	InitSeededRN_Simple, %function
InitSeededRN_Simple:
	@ Function supports interworking.
	@ args = 0, pretend = 0, frame = 16
	@ frame_needed = 0, uses_anonymous_args = 0
	push	{r4, r5, r6, lr}	@
	sub	sp, sp, #16	@,,
@ Patches/../C_code.c:3981:     u16 initTable[8] = { 0xA36E, 0x924E, 0xB784, 0x4F67, 0x8092, 0x592D, 0x8E70, 0xA794 };
	mov	r4, sp	@ tmp135,
	movs	r2, r4	@ tmp137, tmp135
@ Patches/../C_code.c:3977: {
	movs	r5, r0	@ seed, tmp164
@ Patches/../C_code.c:3981:     u16 initTable[8] = { 0xA36E, 0x924E, 0xB784, 0x4F67, 0x8092, 0x592D, 0x8E70, 0xA794 };
	ldr	r3, .L824	@ tmp138,
	ldmia	r3!, {r0, r1, r6}	@ tmp138, tmp168, tmp167, tmp169
	stmia	r2!, {r0, r1, r6}	@ tmp137, tmp168, tmp167, tmp169
	ldr	r3, [r3]	@ tmp139,
@ Patches/../C_code.c:3983:     int mod = Mod(seed, 7);
	movs	r1, #7	@,
@ Patches/../C_code.c:3981:     u16 initTable[8] = { 0xA36E, 0x924E, 0xB784, 0x4F67, 0x8092, 0x592D, 0x8E70, 0xA794 };
	str	r3, [r2]	@ tmp139,
@ Patches/../C_code.c:3983:     int mod = Mod(seed, 7);
	movs	r0, r5	@, seed
	ldr	r6, .L824+4	@ tmp140,
	bl	.L161		@
@ Patches/../C_code.c:3985:     currentRN = initTable[(mod++ & 7)];
	movs	r3, #7	@ tmp142,
	movs	r2, r3	@ tmp143, tmp142
	ands	r2, r0	@ tmp143, mod
@ Patches/../C_code.c:3985:     currentRN = initTable[(mod++ & 7)];
	adds	r0, r0, #1	@ mod,
@ Patches/../C_code.c:3986:     currentRN |= initTable[(mod++ & 7)] << 16;
	ands	r3, r0	@ tmp148, mod
@ Patches/../C_code.c:3985:     currentRN = initTable[(mod++ & 7)];
	lsls	r2, r2, #1	@ tmp144, tmp143,
@ Patches/../C_code.c:3986:     currentRN |= initTable[(mod++ & 7)] << 16;
	lsls	r3, r3, #1	@ tmp149, tmp148,
@ Patches/../C_code.c:3985:     currentRN = initTable[(mod++ & 7)];
	ldrh	r2, [r2, r4]	@ currentRN, initTable
@ Patches/../C_code.c:3986:     currentRN |= initTable[(mod++ & 7)] << 16;
	ldrh	r4, [r3, r4]	@ tmp150, initTable
@ Patches/../C_code.c:3988:     if (Mod(seed, 23) > 0)
	movs	r1, #23	@,
@ Patches/../C_code.c:3986:     currentRN |= initTable[(mod++ & 7)] << 16;
	lsls	r4, r4, #16	@ tmp151, tmp150,
@ Patches/../C_code.c:3988:     if (Mod(seed, 23) > 0)
	movs	r0, r5	@, seed
@ Patches/../C_code.c:3986:     currentRN |= initTable[(mod++ & 7)] << 16;
	orrs	r4, r2	@ <retval>, currentRN
@ Patches/../C_code.c:3988:     if (Mod(seed, 23) > 0)
	bl	.L161		@
@ Patches/../C_code.c:3988:     if (Mod(seed, 23) > 0)
	cmp	r0, #0	@ mod,
	ble	.L817		@,
.L820:
@ Patches/../C_code.c:3959:     u32 rn0 = rn & 0xFFFF;
	lsls	r2, r4, #16	@ tmp153, <retval>,
@ Patches/../C_code.c:3960:     u32 rn1 = rn >> 16;
	lsrs	r3, r4, #16	@ rn1, <retval>,
@ Patches/../C_code.c:3961:     rn = (rn1 << 11) + (rn0 >> 5) + (rn0 << 16);
	lsls	r1, r3, #11	@ tmp155, rn1,
@ Patches/../C_code.c:3961:     rn = (rn1 << 11) + (rn0 >> 5) + (rn0 << 16);
	lsrs	r4, r2, #21	@ tmp154, tmp153,
@ Patches/../C_code.c:3961:     rn = (rn1 << 11) + (rn0 >> 5) + (rn0 << 16);
	adds	r4, r4, r1	@ tmp156, tmp154, tmp155
@ Patches/../C_code.c:3968:         rn0++;
	orrs	r3, r2	@ tmp162, tmp153
@ Patches/../C_code.c:3961:     rn = (rn1 << 11) + (rn0 >> 5) + (rn0 << 16);
	adds	r4, r4, r2	@ rn, tmp156, tmp153
@ Patches/../C_code.c:3968:         rn0++;
	lsrs	r3, r3, #15	@ rn0, tmp162,
@ Patches/../C_code.c:3990:         for (mod = Mod(seed, 23); mod != 0; mod--)
	subs	r0, r0, #1	@ mod,
@ Patches/../C_code.c:3970:     rn ^= rn0;
	eors	r4, r3	@ <retval>, rn0
@ Patches/../C_code.c:3990:         for (mod = Mod(seed, 23); mod != 0; mod--)
	cmp	r0, #0	@ mod,
	bne	.L820		@,
.L817:
@ Patches/../C_code.c:3997: }
	movs	r0, r4	@, <retval>
	add	sp, sp, #16	@,,
	@ sp needed	@
	pop	{r4, r5, r6}
	pop	{r1}
	bx	r1
.L825:
	.align	2
.L824:
	.word	.LANCHOR1+96
	.word	Mod
	.size	InitSeededRN_Simple, .-InitSeededRN_Simple
	.align	1
	.p2align 2,,3
	.global	GetNthRN_Simple
	.syntax unified
	.code	16
	.thumb_func
	.type	GetNthRN_Simple, %function
GetNthRN_Simple:
	@ Function supports interworking.
	@ args = 0, pretend = 0, frame = 0
	@ frame_needed = 0, uses_anonymous_args = 0
	movs	r3, r0	@ n, tmp152
	push	{r4, r5, lr}	@
@ Patches/../C_code.c:4004:     n &= 0xF;
	movs	r5, #15	@ tmp135,
@ Patches/../C_code.c:4000: {
	movs	r0, r2	@ currentRN, tmp154
@ Patches/../C_code.c:4004:     n &= 0xF;
	ands	r5, r3	@ n, n
@ Patches/../C_code.c:4005:     if (!currentRN)
	cmp	r2, #0	@ currentRN,
	bne	.L827		@,
@ Patches/../C_code.c:4001:     int i = n + seed;
	adds	r1, r3, r1	@ i, n, seed
@ Patches/../C_code.c:4002:     i = (i ^ (i >> 12)) & 0x3FFF;
	asrs	r3, r1, #12	@ tmp136, i,
@ Patches/../C_code.c:4002:     i = (i ^ (i >> 12)) & 0x3FFF;
	eors	r3, r1	@ _4, i
@ Patches/../C_code.c:4007:         currentRN = RNTable[i]; // InitSeededRN_Simple(seed, currentRN);
	ldr	r2, .L837	@ tmp137,
@ Patches/../C_code.c:4002:     i = (i ^ (i >> 12)) & 0x3FFF;
	lsls	r3, r3, #18	@ tmp139, _4,
@ Patches/../C_code.c:4007:         currentRN = RNTable[i]; // InitSeededRN_Simple(seed, currentRN);
	lsrs	r3, r3, #16	@ tmp140, tmp139,
	ldr	r0, [r3, r2]	@ currentRN, RNTable[i_12]
.L827:
@ Patches/../C_code.c:4009:     for (int i = 0; i < n; i++)
	cmp	r5, #0	@ n,
	beq	.L828		@,
	movs	r1, #0	@ i,
.L830:
@ Patches/../C_code.c:3959:     u32 rn0 = rn & 0xFFFF;
	lsls	r2, r0, #16	@ tmp141, currentRN,
@ Patches/../C_code.c:3960:     u32 rn1 = rn >> 16;
	lsrs	r3, r0, #16	@ rn1, currentRN,
@ Patches/../C_code.c:3961:     rn = (rn1 << 11) + (rn0 >> 5) + (rn0 << 16);
	lsls	r4, r3, #11	@ tmp143, rn1,
@ Patches/../C_code.c:3961:     rn = (rn1 << 11) + (rn0 >> 5) + (rn0 << 16);
	lsrs	r0, r2, #21	@ tmp142, tmp141,
@ Patches/../C_code.c:3961:     rn = (rn1 << 11) + (rn0 >> 5) + (rn0 << 16);
	adds	r0, r0, r4	@ tmp144, tmp142, tmp143
@ Patches/../C_code.c:3968:         rn0++;
	orrs	r3, r2	@ tmp150, tmp141
@ Patches/../C_code.c:3961:     rn = (rn1 << 11) + (rn0 >> 5) + (rn0 << 16);
	adds	r0, r0, r2	@ rn, tmp144, tmp141
@ Patches/../C_code.c:3968:         rn0++;
	lsrs	r3, r3, #15	@ rn0, tmp150,
@ Patches/../C_code.c:4009:     for (int i = 0; i < n; i++)
	adds	r1, r1, #1	@ i,
@ Patches/../C_code.c:3970:     rn ^= rn0;
	eors	r0, r3	@ currentRN, rn0
@ Patches/../C_code.c:4009:     for (int i = 0; i < n; i++)
	cmp	r5, r1	@ n, i
	bne	.L830		@,
.L828:
@ Patches/../C_code.c:4014: }
	@ sp needed	@
	pop	{r4, r5}
	pop	{r1}
	bx	r1
.L838:
	.align	2
.L837:
	.word	RNTable
	.size	GetNthRN_Simple, .-GetNthRN_Simple
	.align	1
	.p2align 2,,3
	.global	NextSeededRN
	.syntax unified
	.code	16
	.thumb_func
	.type	NextSeededRN, %function
NextSeededRN:
	@ Function supports interworking.
	@ args = 0, pretend = 0, frame = 0
	@ frame_needed = 0, uses_anonymous_args = 0
	movs	r3, r0	@ currentRN, tmp146
	push	{r4, r5, lr}	@
@ Patches/../C_code.c:4021:     u16 rn = (currentRN[1] << 11) + (currentRN[0] >> 5);
	ldrh	r1, [r0, #2]	@ _1, MEM[(u16 *)currentRN_11(D) + 2B]
@ Patches/../C_code.c:4021:     u16 rn = (currentRN[1] << 11) + (currentRN[0] >> 5);
	ldrh	r4, [r0]	@ _3, *currentRN_11(D)
@ Patches/../C_code.c:4021:     u16 rn = (currentRN[1] << 11) + (currentRN[0] >> 5);
	lsls	r0, r1, #11	@ tmp125, _1,
@ Patches/../C_code.c:4021:     u16 rn = (currentRN[1] << 11) + (currentRN[0] >> 5);
	lsrs	r2, r4, #5	@ tmp126, _3,
@ Patches/../C_code.c:4021:     u16 rn = (currentRN[1] << 11) + (currentRN[0] >> 5);
	adds	r0, r0, r2	@ tmp129, tmp125, tmp126
@ Patches/../C_code.c:4024:     currentRN[2] *= 2;
	ldrh	r2, [r3, #4]	@ MEM[(u16 *)currentRN_11(D) + 4B], MEM[(u16 *)currentRN_11(D) + 4B]
@ Patches/../C_code.c:4021:     u16 rn = (currentRN[1] << 11) + (currentRN[0] >> 5);
	lsls	r0, r0, #16	@ tmp130, tmp129,
@ Patches/../C_code.c:4024:     currentRN[2] *= 2;
	lsls	r2, r2, #17	@ tmp134, MEM[(u16 *)currentRN_11(D) + 4B],
@ Patches/../C_code.c:4027:     if (currentRN[1] & 0x8000)
	lsls	r5, r1, #16	@ _1, _1,
@ Patches/../C_code.c:4021:     u16 rn = (currentRN[1] << 11) + (currentRN[0] >> 5);
	lsrs	r0, r0, #16	@ rn, tmp130,
@ Patches/../C_code.c:4024:     currentRN[2] *= 2;
	lsrs	r2, r2, #16	@ _6, tmp134,
@ Patches/../C_code.c:4027:     if (currentRN[1] & 0x8000)
	asrs	r5, r5, #16	@ _1, _1,
	bpl	.L840		@,
@ Patches/../C_code.c:4028:         currentRN[2]++;
	adds	r2, r2, #1	@ tmp138,
	lsls	r2, r2, #16	@ tmp139, tmp138,
	lsrs	r2, r2, #16	@ _6, tmp139,
.L840:
@ Patches/../C_code.c:4030:     rn ^= currentRN[2];
	eors	r0, r2	@ rn, _6
@ Patches/../C_code.c:4033:     currentRN[2] = currentRN[1];
	strh	r1, [r3, #4]	@ _1, MEM[(u16 *)currentRN_11(D) + 4B]
@ Patches/../C_code.c:4038: }
	@ sp needed	@
@ Patches/../C_code.c:4034:     currentRN[1] = currentRN[0];
	strh	r4, [r3, #2]	@ _3, MEM[(u16 *)currentRN_11(D) + 2B]
@ Patches/../C_code.c:4035:     currentRN[0] = rn;
	strh	r0, [r3]	@ rn, *currentRN_11(D)
@ Patches/../C_code.c:4038: }
	pop	{r4, r5}
	pop	{r1}
	bx	r1
	.size	NextSeededRN, .-NextSeededRN
	.align	1
	.p2align 2,,3
	.global	InitSeededRN
	.syntax unified
	.code	16
	.thumb_func
	.type	InitSeededRN, %function
InitSeededRN:
	@ Function supports interworking.
	@ args = 0, pretend = 0, frame = 16
	@ frame_needed = 0, uses_anonymous_args = 0
	push	{r4, r5, r6, r7, lr}	@
	mov	lr, r9	@,
	mov	r7, r8	@,
	push	{r7, lr}	@
	sub	sp, sp, #20	@,,
@ Patches/../C_code.c:4045:     u16 initTable[8] = { 0xA36E, 0x924E, 0xB784, 0x4F67, 0x8092, 0x592D, 0x8E70, 0xA794 };
	mov	r4, sp	@ tmp132,
	movs	r2, r4	@ tmp134, tmp132
@ Patches/../C_code.c:4041: {
	mov	r8, r0	@ seed, tmp175
@ Patches/../C_code.c:4045:     u16 initTable[8] = { 0xA36E, 0x924E, 0xB784, 0x4F67, 0x8092, 0x592D, 0x8E70, 0xA794 };
	ldr	r3, .L847	@ tmp135,
@ Patches/../C_code.c:4041: {
	movs	r7, r1	@ currentRN, tmp176
@ Patches/../C_code.c:4045:     u16 initTable[8] = { 0xA36E, 0x924E, 0xB784, 0x4F67, 0x8092, 0x592D, 0x8E70, 0xA794 };
	ldmia	r3!, {r0, r1, r5}	@ tmp135, tmp180, tmp179, tmp181
	stmia	r2!, {r0, r1, r5}	@ tmp134, tmp180, tmp179, tmp181
	ldr	r3, [r3]	@ tmp136,
	str	r3, [r2]	@ tmp136,
@ Patches/../C_code.c:4047:     int mod = Mod(seed, 7);
	ldr	r3, .L847+4	@ tmp137,
	movs	r1, #7	@,
	mov	r0, r8	@, seed
	mov	r9, r3	@ tmp137, tmp137
	bl	.L24		@
@ Patches/../C_code.c:4049:     currentRN[0] = initTable[(mod++ & 7)];
	movs	r3, #7	@ tmp139,
	movs	r2, r3	@ tmp140, tmp139
	ands	r2, r0	@ tmp140, mod
@ Patches/../C_code.c:4049:     currentRN[0] = initTable[(mod++ & 7)];
	lsls	r2, r2, #1	@ tmp141, tmp140,
	ldrh	r6, [r2, r4]	@ currentRN__lsm.1500, initTable
@ Patches/../C_code.c:4049:     currentRN[0] = initTable[(mod++ & 7)];
	adds	r2, r0, #1	@ mod, mod,
@ Patches/../C_code.c:4050:     currentRN[1] = initTable[(mod++ & 7)];
	adds	r0, r0, #2	@ mod,
@ Patches/../C_code.c:4050:     currentRN[1] = initTable[(mod++ & 7)];
	ands	r2, r3	@ tmp146, tmp139
@ Patches/../C_code.c:4051:     currentRN[2] = initTable[(mod & 7)];
	ands	r3, r0	@ tmp152, mod
@ Patches/../C_code.c:4050:     currentRN[1] = initTable[(mod++ & 7)];
	lsls	r2, r2, #1	@ tmp147, tmp146,
@ Patches/../C_code.c:4051:     currentRN[2] = initTable[(mod & 7)];
	lsls	r3, r3, #1	@ tmp153, tmp152,
@ Patches/../C_code.c:4050:     currentRN[1] = initTable[(mod++ & 7)];
	ldrh	r5, [r2, r4]	@ currentRN__lsm.1499, initTable
@ Patches/../C_code.c:4051:     currentRN[2] = initTable[(mod & 7)];
	ldrh	r4, [r3, r4]	@ currentRN__lsm.1501, initTable
@ Patches/../C_code.c:4053:     if (Mod(seed, 23) > 0)
	movs	r1, #23	@,
	mov	r0, r8	@, seed
@ Patches/../C_code.c:4049:     currentRN[0] = initTable[(mod++ & 7)];
	strh	r6, [r7]	@ currentRN__lsm.1500, *currentRN_16(D)
@ Patches/../C_code.c:4050:     currentRN[1] = initTable[(mod++ & 7)];
	strh	r5, [r7, #2]	@ currentRN__lsm.1499, MEM[(u16 *)currentRN_16(D) + 2B]
@ Patches/../C_code.c:4051:     currentRN[2] = initTable[(mod & 7)];
	strh	r4, [r7, #4]	@ currentRN__lsm.1501, MEM[(u16 *)currentRN_16(D) + 4B]
@ Patches/../C_code.c:4053:     if (Mod(seed, 23) > 0)
	bl	.L22		@
@ Patches/../C_code.c:4053:     if (Mod(seed, 23) > 0)
	cmp	r0, #0	@ mod,
	bgt	.L844		@,
	b	.L841		@
.L845:
@ Patches/../C_code.c:4034:     currentRN[1] = currentRN[0];
	movs	r5, r6	@ currentRN__lsm.1499, currentRN__lsm.1500
@ Patches/../C_code.c:4035:     currentRN[0] = rn;
	movs	r6, r3	@ currentRN__lsm.1500, rn
.L844:
@ Patches/../C_code.c:4021:     u16 rn = (currentRN[1] << 11) + (currentRN[0] >> 5);
	lsls	r3, r5, #11	@ tmp156, currentRN__lsm.1499,
@ Patches/../C_code.c:4021:     u16 rn = (currentRN[1] << 11) + (currentRN[0] >> 5);
	lsrs	r2, r6, #5	@ tmp157, currentRN__lsm.1500,
@ Patches/../C_code.c:4021:     u16 rn = (currentRN[1] << 11) + (currentRN[0] >> 5);
	adds	r3, r3, r2	@ tmp160, tmp156, tmp157
	lsls	r3, r3, #16	@ tmp161, tmp160,
@ Patches/../C_code.c:4024:     currentRN[2] *= 2;
	lsls	r4, r4, #17	@ tmp164, currentRN__lsm.1501,
@ Patches/../C_code.c:4021:     u16 rn = (currentRN[1] << 11) + (currentRN[0] >> 5);
	lsrs	r3, r3, #16	@ rn, tmp161,
@ Patches/../C_code.c:4024:     currentRN[2] *= 2;
	lsrs	r4, r4, #16	@ currentRN__lsm.1501, tmp164,
@ Patches/../C_code.c:4027:     if (currentRN[1] & 0x8000)
	lsls	r2, r5, #16	@ tmp182, currentRN__lsm.1499,
	bpl	.L843		@,
@ Patches/../C_code.c:4028:         currentRN[2]++;
	adds	r4, r4, #1	@ tmp168,
	lsls	r4, r4, #16	@ tmp169, tmp168,
	lsrs	r4, r4, #16	@ currentRN__lsm.1501, tmp169,
.L843:
@ Patches/../C_code.c:4054:         for (mod = Mod(seed, 23); mod != 0; mod--)
	subs	r0, r0, #1	@ mod,
@ Patches/../C_code.c:4030:     rn ^= currentRN[2];
	eors	r3, r4	@ rn, currentRN__lsm.1501
@ Patches/../C_code.c:4033:     currentRN[2] = currentRN[1];
	movs	r4, r5	@ currentRN__lsm.1501, currentRN__lsm.1499
@ Patches/../C_code.c:4054:         for (mod = Mod(seed, 23); mod != 0; mod--)
	cmp	r0, #0	@ mod,
	bne	.L845		@,
	strh	r5, [r7, #4]	@ currentRN__lsm.1499, MEM[(u16 *)currentRN_16(D) + 4B]
	strh	r6, [r7, #2]	@ currentRN__lsm.1500, MEM[(u16 *)currentRN_16(D) + 2B]
	strh	r3, [r7]	@ rn, *currentRN_16(D)
.L841:
@ Patches/../C_code.c:4056: }
	add	sp, sp, #20	@,,
	@ sp needed	@
	pop	{r6, r7}
	mov	r9, r7
	mov	r8, r6
	pop	{r4, r5, r6, r7}
	pop	{r0}
	bx	r0
.L848:
	.align	2
.L847:
	.word	.LANCHOR1+96
	.word	Mod
	.size	InitSeededRN, .-InitSeededRN
	.align	1
	.p2align 2,,3
	.global	GetNthRN
	.syntax unified
	.code	16
	.thumb_func
	.type	GetNthRN, %function
GetNthRN:
	@ Function supports interworking.
	@ args = 0, pretend = 0, frame = 8
	@ frame_needed = 0, uses_anonymous_args = 0
	push	{r4, r5, r6, lr}	@
	movs	r3, r0	@ tmp149, n
@ Patches/../C_code.c:4060:     n &= 0x3F;
	movs	r4, #63	@ tmp127,
@ Patches/../C_code.c:4059: {
	sub	sp, sp, #8	@,,
@ Patches/../C_code.c:4059: {
	movs	r0, r1	@ seed, tmp150
@ Patches/../C_code.c:4062:     InitSeededRN(seed, currentRN);
	mov	r1, sp	@,
@ Patches/../C_code.c:4060:     n &= 0x3F;
	ands	r4, r3	@ n, tmp149
@ Patches/../C_code.c:4062:     InitSeededRN(seed, currentRN);
	bl	InitSeededRN		@
@ Patches/../C_code.c:4064:     for (int i = 0; i < n; i++)
	cmp	r4, #0	@ n,
	beq	.L853		@,
	mov	r3, sp	@ tmp154,
@ Patches/../C_code.c:4064:     for (int i = 0; i < n; i++)
	movs	r1, #0	@ i,
	ldrh	r2, [r3, #2]	@ currentRN__lsm.1511, MEM[(u16 *)&currentRN + 2B]
	ldrh	r5, [r3]	@ currentRN__lsm.1512, MEM[(u16 *)&currentRN]
	ldrh	r6, [r3, #4]	@ currentRN__lsm.1513, MEM[(u16 *)&currentRN + 4B]
	b	.L852		@
.L854:
@ Patches/../C_code.c:4034:     currentRN[1] = currentRN[0];
	movs	r2, r5	@ currentRN__lsm.1511, currentRN__lsm.1512
@ Patches/../C_code.c:4035:     currentRN[0] = rn;
	movs	r5, r0	@ currentRN__lsm.1512, <retval>
.L852:
@ Patches/../C_code.c:4021:     u16 rn = (currentRN[1] << 11) + (currentRN[0] >> 5);
	lsls	r0, r2, #11	@ tmp133, currentRN__lsm.1511,
@ Patches/../C_code.c:4021:     u16 rn = (currentRN[1] << 11) + (currentRN[0] >> 5);
	lsrs	r3, r5, #5	@ tmp132, currentRN__lsm.1512,
@ Patches/../C_code.c:4021:     u16 rn = (currentRN[1] << 11) + (currentRN[0] >> 5);
	adds	r3, r3, r0	@ tmp136, tmp132, tmp133
	lsls	r3, r3, #16	@ tmp137, tmp136,
@ Patches/../C_code.c:4024:     currentRN[2] *= 2;
	lsls	r6, r6, #17	@ tmp140, currentRN__lsm.1513,
@ Patches/../C_code.c:4021:     u16 rn = (currentRN[1] << 11) + (currentRN[0] >> 5);
	lsrs	r3, r3, #16	@ rn, tmp137,
@ Patches/../C_code.c:4024:     currentRN[2] *= 2;
	lsrs	r0, r6, #16	@ currentRN__lsm.1513, tmp140,
@ Patches/../C_code.c:4027:     if (currentRN[1] & 0x8000)
	lsls	r6, r2, #16	@ tmp151, currentRN__lsm.1511,
	bpl	.L851		@,
@ Patches/../C_code.c:4028:         currentRN[2]++;
	adds	r0, r0, #1	@ tmp144,
	lsls	r0, r0, #16	@ tmp145, tmp144,
	lsrs	r0, r0, #16	@ currentRN__lsm.1513, tmp145,
.L851:
@ Patches/../C_code.c:4064:     for (int i = 0; i < n; i++)
	adds	r1, r1, #1	@ i,
@ Patches/../C_code.c:4033:     currentRN[2] = currentRN[1];
	movs	r6, r2	@ currentRN__lsm.1513, currentRN__lsm.1511
@ Patches/../C_code.c:4030:     rn ^= currentRN[2];
	eors	r0, r3	@ <retval>, rn
@ Patches/../C_code.c:4064:     for (int i = 0; i < n; i++)
	cmp	r4, r1	@ n, i
	bne	.L854		@,
.L850:
@ Patches/../C_code.c:4069: }
	add	sp, sp, #8	@,,
	@ sp needed	@
	pop	{r4, r5, r6}
	pop	{r1}
	bx	r1
.L853:
@ Patches/../C_code.c:4064:     for (int i = 0; i < n; i++)
	movs	r0, #0	@ <retval>,
	b	.L850		@
	.size	GetNthRN, .-GetNthRN
	.align	1
	.p2align 2,,3
	.global	GetInitialSeed
	.syntax unified
	.code	16
	.thumb_func
	.type	GetInitialSeed, %function
GetInitialSeed:
	@ Function supports interworking.
	@ args = 0, pretend = 0, frame = 104
	@ frame_needed = 0, uses_anonymous_args = 0
	push	{r4, r5, r6, r7, lr}	@
	mov	lr, r8	@,
@ Patches/../C_code.c:4111:     int result = RandValues->seed;
	ldr	r3, .L861	@ tmp151,
@ Patches/../C_code.c:4108: {
	push	{lr}	@
@ Patches/../C_code.c:4111:     int result = RandValues->seed;
	ldr	r3, [r3]	@ RandValues, RandValues
	ldr	r4, [r3]	@ *RandValues.184_1, *RandValues.184_1
@ Patches/../C_code.c:4112:     int clock = GetGameClock() >> rate;
	ldr	r3, .L861+4	@ tmp154,
@ Patches/../C_code.c:4108: {
	sub	sp, sp, #104	@,,
@ Patches/../C_code.c:4108: {
	movs	r7, r0	@ rate, tmp184
	movs	r6, r1	@ proc, tmp185
@ Patches/../C_code.c:4112:     int clock = GetGameClock() >> rate;
	mov	r8, r3	@ tmp154, tmp154
	bl	.L24		@
@ Patches/../C_code.c:4111:     int result = RandValues->seed;
	lsls	r4, r4, #12	@ tmp153, *RandValues.184_1,
@ Patches/../C_code.c:4112:     int clock = GetGameClock() >> rate;
	movs	r5, r0	@ _3, tmp186
@ Patches/../C_code.c:4111:     int result = RandValues->seed;
	lsrs	r4, r4, #12	@ <retval>, tmp153,
@ Patches/../C_code.c:4113:     if (!result)
	bne	.L857		@,
@ Patches/../C_code.c:4115:         if (!proc->globalChecksum)
	ldrh	r4, [r6, #60]	@ _5,
@ Patches/../C_code.c:4115:         if (!proc->globalChecksum)
	cmp	r4, #0	@ _5,
	beq	.L860		@,
@ Patches/../C_code.c:4112:     int clock = GetGameClock() >> rate;
	lsrs	r5, r5, r7	@ _49, _3, rate
@ Patches/../C_code.c:4121:         result = (GetNthRN(clock, (clock & 0xF)) << 4) | GetNthRN(clock, (clock & 0xF0));
	movs	r1, #15	@ tmp175,
	movs	r0, r5	@, _49
	ands	r1, r5	@ tmp176, _49
	bl	GetNthRN		@
@ Patches/../C_code.c:4121:         result = (GetNthRN(clock, (clock & 0xF)) << 4) | GetNthRN(clock, (clock & 0xF0));
	movs	r1, #240	@ tmp179,
@ Patches/../C_code.c:4121:         result = (GetNthRN(clock, (clock & 0xF)) << 4) | GetNthRN(clock, (clock & 0xF0));
	movs	r6, r0	@ tmp177, tmp190
@ Patches/../C_code.c:4121:         result = (GetNthRN(clock, (clock & 0xF)) << 4) | GetNthRN(clock, (clock & 0xF0));
	ands	r1, r5	@ tmp180, _49
	movs	r0, r5	@, _49
	bl	GetNthRN		@
@ Patches/../C_code.c:4121:         result = (GetNthRN(clock, (clock & 0xF)) << 4) | GetNthRN(clock, (clock & 0xF0));
	lsls	r6, r6, #4	@ tmp183, tmp177,
@ Patches/../C_code.c:4121:         result = (GetNthRN(clock, (clock & 0xF)) << 4) | GetNthRN(clock, (clock & 0xF0));
	orrs	r6, r0	@ result, tmp191
@ Patches/../C_code.c:4122:         result += proc->globalChecksum;
	adds	r4, r4, r6	@ <retval>, _5, result
.L857:
@ Patches/../C_code.c:4128:     if (result > 999999)
	ldr	r3, .L861+8	@ tmp170,
	cmp	r4, r3	@ <retval>, tmp170
	ble	.L856		@,
@ Patches/../C_code.c:4130:         result &= 0xEFFFF;
	ldr	r3, .L861+12	@ tmp173,
	ands	r4, r3	@ <retval>, tmp173
.L856:
@ Patches/../C_code.c:4133: }
	movs	r0, r4	@, <retval>
	add	sp, sp, #104	@,,
	@ sp needed	@
	pop	{r7}
	mov	r8, r7
	pop	{r4, r5, r6, r7}
	pop	{r1}
	bx	r1
.L860:
@ Patches/../C_code.c:4118:             ReadGlobalSaveInfo(&info);
	add	r4, sp, #4	@ tmp155,,
	movs	r0, r4	@, tmp155
	ldr	r3, .L861+16	@ tmp156,
	bl	.L24		@
@ Patches/../C_code.c:4119:             proc->globalChecksum = info.checksum;
	movs	r3, #96	@ tmp158,
@ Patches/../C_code.c:4112:     int clock = GetGameClock() >> rate;
	lsrs	r5, r5, r7	@ _4, _3, rate
@ Patches/../C_code.c:4121:         result = (GetNthRN(clock, (clock & 0xF)) << 4) | GetNthRN(clock, (clock & 0xF0));
	movs	r1, #15	@ tmp160,
@ Patches/../C_code.c:4119:             proc->globalChecksum = info.checksum;
	ldrh	r4, [r4, r3]	@ _6,
@ Patches/../C_code.c:4121:         result = (GetNthRN(clock, (clock & 0xF)) << 4) | GetNthRN(clock, (clock & 0xF0));
	ands	r1, r5	@ tmp161, _4
@ Patches/../C_code.c:4119:             proc->globalChecksum = info.checksum;
	strh	r4, [r6, #60]	@ _6, proc_27(D)->globalChecksum
@ Patches/../C_code.c:4121:         result = (GetNthRN(clock, (clock & 0xF)) << 4) | GetNthRN(clock, (clock & 0xF0));
	movs	r0, r5	@, _4
	bl	GetNthRN		@
@ Patches/../C_code.c:4121:         result = (GetNthRN(clock, (clock & 0xF)) << 4) | GetNthRN(clock, (clock & 0xF0));
	movs	r1, #240	@ tmp164,
@ Patches/../C_code.c:4121:         result = (GetNthRN(clock, (clock & 0xF)) << 4) | GetNthRN(clock, (clock & 0xF0));
	movs	r6, r0	@ tmp162, tmp187
@ Patches/../C_code.c:4121:         result = (GetNthRN(clock, (clock & 0xF)) << 4) | GetNthRN(clock, (clock & 0xF0));
	ands	r1, r5	@ tmp165, _4
	movs	r0, r5	@, _4
	bl	GetNthRN		@
@ Patches/../C_code.c:4121:         result = (GetNthRN(clock, (clock & 0xF)) << 4) | GetNthRN(clock, (clock & 0xF0));
	lsls	r6, r6, #4	@ tmp168, tmp162,
@ Patches/../C_code.c:4121:         result = (GetNthRN(clock, (clock & 0xF)) << 4) | GetNthRN(clock, (clock & 0xF0));
	orrs	r6, r0	@ result, tmp188
@ Patches/../C_code.c:4122:         result += proc->globalChecksum;
	adds	r4, r4, r6	@ <retval>, _6, result
@ Patches/../C_code.c:4124:     if (!result)
	cmp	r4, #0	@ <retval>,
	bne	.L857		@,
@ Patches/../C_code.c:4126:         result = GetGameClock() << 9;
	bl	.L67		@
@ Patches/../C_code.c:4126:         result = GetGameClock() << 9;
	lsls	r4, r0, #9	@ <retval>, tmp189,
	b	.L857		@
.L862:
	.align	2
.L861:
	.word	RandValues
	.word	GetGameClock
	.word	999999
	.word	983039
	.word	ReadGlobalSaveInfo
	.size	GetInitialSeed, .-GetInitialSeed
	.align	1
	.p2align 2,,3
	.global	HashByte_Class
	.syntax unified
	.code	16
	.thumb_func
	.type	HashByte_Class, %function
HashByte_Class:
	@ Function supports interworking.
	@ args = 0, pretend = 0, frame = 0
	@ frame_needed = 0, uses_anonymous_args = 0
	push	{r4, r5, r6, lr}	@
@ Patches/../C_code.c:4138:     while ((c = *noise++))
	ldrb	r5, [r2]	@ c, *noise_31(D)
@ Patches/../C_code.c:4138:     while ((c = *noise++))
	adds	r4, r2, #1	@ noise, noise,
@ Patches/../C_code.c:4138:     while ((c = *noise++))
	cmp	r5, #0	@ c,
	beq	.L864		@,
.L865:
@ Patches/../C_code.c:4140:         n = c + (n << 6) + (n << 16) - n;
	lsls	r2, r0, #6	@ tmp154, n,
@ Patches/../C_code.c:4140:         n = c + (n << 6) + (n << 16) - n;
	adds	r2, r2, r5	@ tmp155, tmp154, c
@ Patches/../C_code.c:4140:         n = c + (n << 6) + (n << 16) - n;
	lsls	r5, r0, #16	@ tmp156, n,
@ Patches/../C_code.c:4140:         n = c + (n << 6) + (n << 16) - n;
	adds	r2, r2, r5	@ _4, tmp155, tmp156
@ Patches/../C_code.c:4138:     while ((c = *noise++))
	ldrb	r5, [r4]	@ c, MEM[(u8 *)_117]
@ Patches/../C_code.c:4140:         n = c + (n << 6) + (n << 16) - n;
	subs	r0, r2, r0	@ n, _4, n
@ Patches/../C_code.c:4138:     while ((c = *noise++))
	adds	r4, r4, #1	@ ivtmp.1527,
	cmp	r5, #0	@ c,
	bne	.L865		@,
.L864:
@ Patches/../C_code.c:4146: }
	@ sp needed	@
@ Patches/../C_code.c:4142:     n = (RandValues->seed & 0xFF) + (n << 6) + (n << 16) - n;
	movs	r4, #255	@ tmp161,
	movs	r5, r4	@ tmp162, tmp161
@ Patches/../C_code.c:4142:     n = (RandValues->seed & 0xFF) + (n << 6) + (n << 16) - n;
	ldr	r2, .L870	@ tmp158,
	ldr	r2, [r2]	@ RandValues, RandValues
	ldr	r2, [r2]	@ *RandValues.186_6, *RandValues.186_6
	lsls	r2, r2, #12	@ tmp160, *RandValues.186_6,
	lsrs	r2, r2, #12	@ _7, tmp160,
@ Patches/../C_code.c:4142:     n = (RandValues->seed & 0xFF) + (n << 6) + (n << 16) - n;
	lsls	r6, r0, #6	@ tmp163, n,
@ Patches/../C_code.c:4142:     n = (RandValues->seed & 0xFF) + (n << 6) + (n << 16) - n;
	ands	r5, r2	@ tmp162, _7
@ Patches/../C_code.c:4142:     n = (RandValues->seed & 0xFF) + (n << 6) + (n << 16) - n;
	adds	r5, r5, r6	@ tmp164, tmp162, tmp163
@ Patches/../C_code.c:4142:     n = (RandValues->seed & 0xFF) + (n << 6) + (n << 16) - n;
	lsls	r6, r0, #16	@ tmp165, n,
@ Patches/../C_code.c:4142:     n = (RandValues->seed & 0xFF) + (n << 6) + (n << 16) - n;
	adds	r5, r5, r6	@ _12, tmp164, tmp165
@ Patches/../C_code.c:4142:     n = (RandValues->seed & 0xFF) + (n << 6) + (n << 16) - n;
	subs	r0, r5, r0	@ n, _12, n
@ Patches/../C_code.c:4143:     n = ((RandValues->seed & 0xFF00) >> 8) + (n << 6) + (n << 16) - n;
	asrs	r2, r2, #8	@ tmp166, _7,
@ Patches/../C_code.c:4143:     n = ((RandValues->seed & 0xFF00) >> 8) + (n << 6) + (n << 16) - n;
	lsls	r5, r0, #6	@ tmp169, n,
@ Patches/../C_code.c:4143:     n = ((RandValues->seed & 0xFF00) >> 8) + (n << 6) + (n << 16) - n;
	ands	r2, r4	@ tmp168, tmp161
@ Patches/../C_code.c:4143:     n = ((RandValues->seed & 0xFF00) >> 8) + (n << 6) + (n << 16) - n;
	adds	r2, r2, r5	@ tmp170, tmp168, tmp169
@ Patches/../C_code.c:4143:     n = ((RandValues->seed & 0xFF00) >> 8) + (n << 6) + (n << 16) - n;
	lsls	r5, r0, #16	@ tmp171, n,
@ Patches/../C_code.c:4143:     n = ((RandValues->seed & 0xFF00) >> 8) + (n << 6) + (n << 16) - n;
	adds	r2, r2, r5	@ _20, tmp170, tmp171
@ Patches/../C_code.c:4143:     n = ((RandValues->seed & 0xFF00) >> 8) + (n << 6) + (n << 16) - n;
	subs	r2, r2, r0	@ n, _20, n
@ Patches/../C_code.c:4144:     n = ((offset & 0xFF)) + (n << 6) + (n << 16) - n;
	ands	r4, r3	@ tmp173, offset
@ Patches/../C_code.c:4144:     n = ((offset & 0xFF)) + (n << 6) + (n << 16) - n;
	lsls	r0, r2, #6	@ tmp174, n,
@ Patches/../C_code.c:4144:     n = ((offset & 0xFF)) + (n << 6) + (n << 16) - n;
	lsls	r3, r2, #16	@ tmp176, n,
@ Patches/../C_code.c:4144:     n = ((offset & 0xFF)) + (n << 6) + (n << 16) - n;
	adds	r0, r4, r0	@ tmp175, tmp173, tmp174
@ Patches/../C_code.c:4144:     n = ((offset & 0xFF)) + (n << 6) + (n << 16) - n;
	adds	r0, r0, r3	@ _25, tmp175, tmp176
@ Patches/../C_code.c:4145:     return Mod((n & 0x2FFFFFFF), max);
	ldr	r3, .L870+4	@ tmp179,
@ Patches/../C_code.c:4144:     n = ((offset & 0xFF)) + (n << 6) + (n << 16) - n;
	subs	r0, r0, r2	@ n, _25, n
@ Patches/../C_code.c:4145:     return Mod((n & 0x2FFFFFFF), max);
	ands	r0, r3	@ tmp178, tmp179
	ldr	r3, .L870+8	@ tmp180,
	bl	.L24		@
@ Patches/../C_code.c:4145:     return Mod((n & 0x2FFFFFFF), max);
	lsls	r0, r0, #16	@ tmp183, tmp188,
	lsrs	r0, r0, #16	@ tmp182, tmp183,
@ Patches/../C_code.c:4146: }
	pop	{r4, r5, r6}
	pop	{r1}
	bx	r1
.L871:
	.align	2
.L870:
	.word	RandValues
	.word	805306367
	.word	Mod
	.size	HashByte_Class, .-HashByte_Class
	.align	1
	.p2align 2,,3
	.global	HashByte_Global
	.syntax unified
	.code	16
	.thumb_func
	.type	HashByte_Global, %function
HashByte_Global:
	@ Function supports interworking.
	@ args = 0, pretend = 0, frame = 0
	@ frame_needed = 0, uses_anonymous_args = 0
	push	{r4, r5, r6, lr}	@
@ Patches/../C_code.c:4149: {
	movs	r5, r1	@ max, tmp194
@ Patches/../C_code.c:4165: }
	@ sp needed	@
@ Patches/../C_code.c:4151:     offset ^= RandValues->seed;
	ldr	r1, .L873	@ tmp148,
	ldr	r1, [r1]	@ RandValues, RandValues
@ Patches/../C_code.c:4155:     offset ^= number * 37;
	lsls	r4, r0, #3	@ tmp152, number,
@ Patches/../C_code.c:4151:     offset ^= RandValues->seed;
	ldr	r1, [r1]	@ *RandValues.188_1, *RandValues.188_1
@ Patches/../C_code.c:4155:     offset ^= number * 37;
	adds	r4, r4, r0	@ tmp153, tmp152, number
	lsls	r4, r4, #2	@ tmp154, tmp153,
@ Patches/../C_code.c:4151:     offset ^= RandValues->seed;
	lsls	r1, r1, #12	@ tmp150, *RandValues.188_1,
	lsrs	r1, r1, #12	@ _2, tmp150,
@ Patches/../C_code.c:4155:     offset ^= number * 37;
	adds	r0, r4, r0	@ tmp155, tmp154, number
@ Patches/../C_code.c:4152:     offset ^= noise[1] * 29; // Small primes
	ldr	r4, [r2, #4]	@ MEM[(int *)noise_22(D) + 4B], MEM[(int *)noise_22(D) + 4B]
	eors	r0, r1	@ tmp156, _2
	eors	r0, r3	@ tmp157, tmp196
	lsls	r3, r4, #3	@ tmp160, MEM[(int *)noise_22(D) + 4B],
	subs	r3, r3, r4	@ tmp161, tmp160, MEM[(int *)noise_22(D) + 4B]
	lsls	r3, r3, #2	@ tmp162, tmp161,
	adds	r3, r3, r4	@ tmp163, tmp162, MEM[(int *)noise_22(D) + 4B]
@ Patches/../C_code.c:4153:     offset ^= noise[2] * 61;
	ldr	r4, [r2, #8]	@ MEM[(int *)noise_22(D) + 8B], MEM[(int *)noise_22(D) + 8B]
	eors	r0, r3	@ tmp164, tmp163
	lsls	r3, r4, #4	@ tmp167, MEM[(int *)noise_22(D) + 8B],
	subs	r3, r3, r4	@ tmp168, tmp167, MEM[(int *)noise_22(D) + 8B]
	lsls	r3, r3, #2	@ tmp169, tmp168,
	adds	r3, r3, r4	@ tmp170, tmp169, MEM[(int *)noise_22(D) + 8B]
@ Patches/../C_code.c:4154:     offset ^= noise[3] * 113;
	ldr	r4, [r2, #12]	@ MEM[(int *)noise_22(D) + 12B], MEM[(int *)noise_22(D) + 12B]
	eors	r0, r3	@ _38, tmp170
	lsls	r3, r4, #3	@ tmp173, MEM[(int *)noise_22(D) + 12B],
	subs	r3, r3, r4	@ tmp174, tmp173, MEM[(int *)noise_22(D) + 12B]
@ Patches/../C_code.c:4156:     offset ^= noise[0] * 73;
	ldr	r2, [r2]	@ *noise_22(D), *noise_22(D)
@ Patches/../C_code.c:4154:     offset ^= noise[3] * 113;
	lsls	r3, r3, #4	@ tmp175, tmp174,
	adds	r3, r3, r4	@ tmp176, tmp175, MEM[(int *)noise_22(D) + 12B]
@ Patches/../C_code.c:4155:     offset ^= number * 37;
	eors	r0, r3	@ offset, tmp176
@ Patches/../C_code.c:4156:     offset ^= noise[0] * 73;
	lsls	r3, r2, #3	@ tmp179, *noise_22(D),
	adds	r3, r3, r2	@ tmp180, tmp179, *noise_22(D)
	lsls	r3, r3, #3	@ tmp181, tmp180,
	adds	r3, r3, r2	@ tmp182, tmp181, *noise_22(D)
@ Patches/../C_code.c:4156:     offset ^= noise[0] * 73;
	eors	r3, r0	@ offset, offset
@ Patches/../C_code.c:4159:     offset ^= (offset >> 4) ^ (offset << 3);
	lsls	r0, r3, #3	@ tmp184, offset,
@ Patches/../C_code.c:4159:     offset ^= (offset >> 4) ^ (offset << 3);
	asrs	r2, r3, #4	@ tmp183, offset,
@ Patches/../C_code.c:4159:     offset ^= (offset >> 4) ^ (offset << 3);
	eors	r2, r0	@ _15, tmp184
@ Patches/../C_code.c:4160:     offset *= 40503; // Smaller prime (fits in 16-bit)
	ldr	r0, .L873+4	@ tmp186,
@ Patches/../C_code.c:4159:     offset ^= (offset >> 4) ^ (offset << 3);
	eors	r3, r2	@ offset, _15
@ Patches/../C_code.c:4160:     offset *= 40503; // Smaller prime (fits in 16-bit)
	muls	r0, r3	@ offset, offset
@ Patches/../C_code.c:4162:     u32 currentRN = GetNthRN_Simple(offset, RandValues->seed, 0);
	movs	r2, #0	@,
	bl	GetNthRN_Simple		@
@ Patches/../C_code.c:4164:     return Mod((currentRN & 0x2FFFFFFF), max);
	ldr	r3, .L873+8	@ tmp188,
	movs	r1, r5	@, max
	ands	r0, r3	@ tmp187, tmp188
	ldr	r3, .L873+12	@ tmp189,
	bl	.L24		@
@ Patches/../C_code.c:4164:     return Mod((currentRN & 0x2FFFFFFF), max);
	lsls	r0, r0, #16	@ tmp192, tmp198,
	lsrs	r0, r0, #16	@ tmp191, tmp192,
@ Patches/../C_code.c:4165: }
	pop	{r4, r5, r6}
	pop	{r1}
	bx	r1
.L874:
	.align	2
.L873:
	.word	RandValues
	.word	40503
	.word	805306367
	.word	Mod
	.size	HashByte_Global, .-HashByte_Global
	.align	1
	.p2align 2,,3
	.global	RandomizeSkill
	.syntax unified
	.code	16
	.thumb_func
	.type	RandomizeSkill, %function
RandomizeSkill:
	@ Function supports interworking.
	@ args = 0, pretend = 0, frame = 16
	@ frame_needed = 0, uses_anonymous_args = 0
	push	{r4, lr}	@
	sub	sp, sp, #16	@,,
@ Patches/../C_code.c:287:     if (!id)
	cmp	r0, #0	@ id,
	beq	.L879		@,
@ Patches/../C_code.c:291:     if (SkillExceptions[id].NeverChangeFrom)
	ldr	r4, .L886	@ tmp132,
	lsls	r3, r0, #1	@ tmp133, id,
@ Patches/../C_code.c:291:     if (SkillExceptions[id].NeverChangeFrom)
	ldrb	r3, [r3, r4]	@ tmp134, SkillExceptions
	cmp	r3, #0	@ tmp134,
	bne	.L875		@,
@ Patches/../C_code.c:295:     if (!RandValues->skills)
	ldr	r3, .L886+4	@ tmp136,
	ldr	r3, [r3]	@ RandValues, RandValues
	ldrb	r3, [r3, #3]	@ _3, *RandValues.3_2
@ Patches/../C_code.c:295:     if (!RandValues->skills)
	cmp	r3, #63	@ _3,
	bhi	.L878		@,
@ Patches/../C_code.c:297:         if (!VanillaSkill[id])
	ldr	r3, .L886+8	@ tmp139,
@ Patches/../C_code.c:297:         if (!VanillaSkill[id])
	ldrb	r3, [r3, r0]	@ tmp140, VanillaSkill
	cmp	r3, #0	@ tmp140,
	bne	.L875		@,
.L879:
@ Patches/../C_code.c:289:         return 0;
	movs	r0, #0	@ <retval>,
.L875:
@ Patches/../C_code.c:318: }
	add	sp, sp, #16	@,,
	@ sp needed	@
	pop	{r4}
	pop	{r1}
	bx	r1
.L878:
@ Patches/../C_code.c:306:     if (RandValues->skills == 2)
	movs	r2, #63	@ tmp142,
	bics	r3, r2	@ tmp143, tmp142
	cmp	r3, #128	@ tmp143,
	beq	.L875		@,
@ Patches/../C_code.c:310:     const struct CharacterData * table = unit->pCharacterData;
	ldr	r3, [r1]	@ table, unit_20(D)->pCharacterData
@ Patches/../C_code.c:311:     int noise[4] = { table->number, id, id, table->portraitId };
	ldrb	r2, [r3, #4]	@ tmp146,
@ Patches/../C_code.c:311:     int noise[4] = { table->number, id, id, table->portraitId };
	str	r0, [sp, #4]	@ <retval>, noise[1]
@ Patches/../C_code.c:311:     int noise[4] = { table->number, id, id, table->portraitId };
	str	r2, [sp]	@ tmp146, noise[0]
@ Patches/../C_code.c:311:     int noise[4] = { table->number, id, id, table->portraitId };
	str	r0, [sp, #8]	@ <retval>, noise[2]
@ Patches/../C_code.c:311:     int noise[4] = { table->number, id, id, table->portraitId };
	ldrh	r3, [r3, #6]	@ tmp150,
	str	r3, [sp, #12]	@ tmp150, noise[3]
@ Patches/../C_code.c:312:     id = HashByte_Global(id, NumberOfSkills - 1, noise, 12) + 1; // never 0
	ldr	r3, .L886+12	@ tmp152,
	ldr	r1, [r3]	@ NumberOfSkills, NumberOfSkills
	mov	r2, sp	@,
	movs	r3, #12	@,
	subs	r1, r1, #1	@ tmp153,
	bl	HashByte_Global		@
@ Patches/../C_code.c:312:     id = HashByte_Global(id, NumberOfSkills - 1, noise, 12) + 1; // never 0
	adds	r0, r0, #1	@ <retval>,
@ Patches/../C_code.c:313:     if (SkillExceptions[id].NeverChangeInto)
	lsls	r3, r0, #1	@ tmp158, <retval>,
	adds	r4, r4, r3	@ tmp159, tmp132, tmp158
@ Patches/../C_code.c:313:     if (SkillExceptions[id].NeverChangeInto)
	ldrb	r3, [r4, #1]	@ tmp161, SkillExceptions
	cmp	r3, #0	@ tmp161,
	beq	.L875		@,
	b	.L879		@
.L887:
	.align	2
.L886:
	.word	SkillExceptions
	.word	RandValues
	.word	VanillaSkill
	.word	NumberOfSkills
	.size	RandomizeSkill, .-RandomizeSkill
	.align	1
	.p2align 2,,3
	.global	GetCharTableID
	.syntax unified
	.code	16
	.thumb_func
	.type	GetCharTableID, %function
GetCharTableID:
	@ Function supports interworking.
	@ args = 0, pretend = 0, frame = 16
	@ frame_needed = 0, uses_anonymous_args = 0
@ Patches/../C_code.c:466:     return GrowthValues->ForcedCharTable;
	ldr	r2, .L890	@ tmp120,
@ Patches/../C_code.c:470: {
	push	{r4, r5, r6, lr}	@
@ Patches/../C_code.c:466:     return GrowthValues->ForcedCharTable;
	ldr	r2, [r2]	@ GrowthValues, GrowthValues
	ldrb	r2, [r2, #1]	@ *GrowthValues.11_5, *GrowthValues.11_5
	lsls	r2, r2, #27	@ tmp125, *GrowthValues.11_5,
@ Patches/../C_code.c:470: {
	movs	r3, r0	@ portraitID, tmp136
	sub	sp, sp, #16	@,,
@ Patches/../C_code.c:466:     return GrowthValues->ForcedCharTable;
	lsrs	r0, r2, #27	@ <retval>, tmp125,
@ Patches/../C_code.c:476:     if (result < NumberOfCharTables)
	cmp	r0, #11	@ <retval>,
	ble	.L888		@,
@ Patches/../C_code.c:480:     int noise[4] = { 5, 7, 9, 11 };
	mov	r2, sp	@ tmp127,
	movs	r0, r2	@ tmp129, tmp127
	ldr	r1, .L890+4	@ tmp130,
	ldmia	r1!, {r4, r5, r6}	@ tmp130, tmp138, tmp139, tmp140
	stmia	r0!, {r4, r5, r6}	@ tmp129, tmp138, tmp139, tmp140
	ldr	r1, [r1]	@ tmp131,
	str	r1, [r0]	@ tmp131,
@ Patches/../C_code.c:481:     result = HashByte_Global(portraitID, NumberOfCharTables, noise, portraitID);
	movs	r1, #12	@,
	movs	r0, r3	@, portraitID
	bl	HashByte_Global		@
.L888:
@ Patches/../C_code.c:484: }
	add	sp, sp, #16	@,,
	@ sp needed	@
	pop	{r4, r5, r6}
	pop	{r1}
	bx	r1
.L891:
	.align	2
.L890:
	.word	GrowthValues
	.word	.LANCHOR1+112
	.size	GetCharTableID, .-GetCharTableID
	.align	1
	.p2align 2,,3
	.global	BuildRecruitableCharsList
	.syntax unified
	.code	16
	.thumb_func
	.type	BuildRecruitableCharsList, %function
BuildRecruitableCharsList:
	@ Function supports interworking.
	@ args = 16, pretend = 0, frame = 32
	@ frame_needed = 0, uses_anonymous_args = 0
	push	{r4, r5, r6, r7, lr}	@
	mov	lr, fp	@,
	mov	r7, r10	@,
	mov	r5, r8	@,
	mov	r6, r9	@,
	push	{r5, r6, r7, lr}	@
	sub	sp, sp, #36	@,,
@ Patches/../C_code.c:2513: {
	str	r0, [sp, #12]	@ tmp188, %sfp
@ Patches/../C_code.c:2514:     const struct CharacterData * table = GetCharacterData(1);
	ldr	r3, .L910	@ tmp147,
	movs	r0, #1	@,
@ Patches/../C_code.c:2513: {
	str	r1, [sp, #4]	@ tmp189, %sfp
	str	r2, [sp, #8]	@ tmp190, %sfp
	ldr	r7, [sp, #72]	@ proc1, proc1
@ Patches/../C_code.c:2514:     const struct CharacterData * table = GetCharacterData(1);
	bl	.L24		@
@ Patches/../C_code.c:2518:     int c = 0;
	movs	r3, #0	@ c,
	mov	fp, r3	@ c, c
@ Patches/../C_code.c:2517:     int b = 0;
	str	r3, [sp]	@ b, %sfp
	ldr	r3, .L910+4	@ tmp184,
	mov	r8, r3	@ tmp184, tmp184
@ Patches/../C_code.c:480:     int noise[4] = { 5, 7, 9, 11 };
	ldr	r3, .L910+8	@ tmp186,
	mov	r9, r3	@ tmp186, tmp186
@ Patches/../C_code.c:2536:         proc->id[i & 0x3F] = 0x0;
	movs	r3, #44	@ tmp187,
@ Patches/../C_code.c:2514:     const struct CharacterData * table = GetCharacterData(1);
	movs	r5, r0	@ table, tmp191
@ Patches/../C_code.c:2519:     for (int i = 1; i <= MAX_CHAR_ID; ++i)
	movs	r4, #1	@ i,
@ Patches/../C_code.c:2536:         proc->id[i & 0x3F] = 0x0;
	mov	r10, r3	@ tmp187, tmp187
.L899:
@ Patches/../C_code.c:466:     return GrowthValues->ForcedCharTable;
	mov	r3, r8	@ tmp184, tmp184
	ldr	r3, [r3]	@ GrowthValues, GrowthValues
	ldrb	r1, [r3, #1]	@ *GrowthValues.11_51, *GrowthValues.11_51
	lsls	r1, r1, #27	@ tmp154, *GrowthValues.11_51,
	lsrs	r1, r1, #27	@ result, tmp154,
@ Patches/../C_code.c:476:     if (result < NumberOfCharTables)
	cmp	r1, #11	@ result,
	ble	.L893		@,
@ Patches/../C_code.c:480:     int noise[4] = { 5, 7, 9, 11 };
	mov	r2, r9	@ tmp159, tmp186
	add	r3, sp, #16	@ tmp158,,
	adds	r2, r2, #112	@ tmp159,
@ Patches/../C_code.c:2521:         table = (const struct CharacterData *)NewGetCharacterData(i, GetCharTableID(table->portraitId));
	ldrh	r0, [r5, #6]	@ _1,
@ Patches/../C_code.c:480:     int noise[4] = { 5, 7, 9, 11 };
	ldmia	r2!, {r1, r5, r6}	@ tmp159, tmp197, tmp198, tmp199
	stmia	r3!, {r1, r5, r6}	@ tmp158, tmp197, tmp198, tmp199
	ldr	r2, [r2]	@ tmp160,
@ Patches/../C_code.c:481:     result = HashByte_Global(portraitID, NumberOfCharTables, noise, portraitID);
	movs	r1, #12	@,
@ Patches/../C_code.c:480:     int noise[4] = { 5, 7, 9, 11 };
	str	r2, [r3]	@ tmp160,
@ Patches/../C_code.c:481:     result = HashByte_Global(portraitID, NumberOfCharTables, noise, portraitID);
	movs	r3, r0	@, _1
	add	r2, sp, #16	@,,
	bl	HashByte_Global		@
	movs	r1, r0	@ result, tmp192
.L893:
@ Patches/../C_code.c:2521:         table = (const struct CharacterData *)NewGetCharacterData(i, GetCharTableID(table->portraitId));
	movs	r0, r4	@, i
	bl	NewGetCharacterData		@
	movs	r5, r0	@ table, tmp193
@ Patches/../C_code.c:2524:         if (i == 0x40)
	cmp	r4, #64	@ i,
	beq	.L903		@,
@ Patches/../C_code.c:2528:         if (i == 0x80)
	cmp	r4, #128	@ i,
	beq	.L904		@,
@ Patches/../C_code.c:2532:         if (i == 0xC0)
	cmp	r4, #192	@ i,
	beq	.L905		@,
@ Patches/../C_code.c:2536:         proc->id[i & 0x3F] = 0x0;
	movs	r3, #63	@ tmp164,
@ Patches/../C_code.c:2536:         proc->id[i & 0x3F] = 0x0;
	movs	r2, #0	@ tmp169,
@ Patches/../C_code.c:2536:         proc->id[i & 0x3F] = 0x0;
	ands	r3, r4	@ tmp165, i
@ Patches/../C_code.c:2536:         proc->id[i & 0x3F] = 0x0;
	adds	r3, r7, r3	@ tmp167, proc1, tmp165
	adds	r3, r3, #44	@ tmp168,
	strb	r2, [r3]	@ tmp169, proc_58->id[_4]
@ Patches/../C_code.c:2053:     if (!table->portraitId)
	ldrh	r3, [r0, #6]	@ tmp171,
	cmp	r3, #0	@ tmp171,
	beq	.L895		@,
.L902:
@ Patches/../C_code.c:2543:         boss = table->attributes & (CA_BOSS);
	movs	r3, #128	@ tmp174,
	ldr	r1, [r5, #40]	@ table_37->attributes, table_37->attributes
	lsls	r3, r3, #8	@ tmp174, tmp174,
	movs	r0, r5	@, table
	ands	r1, r3	@ boss, tmp174
	bl	GetUnitListToUse.part.0		@
@ Patches/../C_code.c:2544:         switch (GetUnitListToUse(table, boss, true))
	cmp	r0, #1	@ _35,
	beq	.L896		@,
	cmp	r0, #2	@ _35,
	bne	.L895		@,
@ Patches/../C_code.c:2559:                 bosses[b] = i;
	ldr	r3, [sp]	@ b, %sfp
